ARM GAS  F:\TEMP\ccedxofz.s 			page 1


   1              		.cpu cortex-m3
   2              		.eabi_attribute 20, 1
   3              		.eabi_attribute 21, 1
   4              		.eabi_attribute 23, 3
   5              		.eabi_attribute 24, 1
   6              		.eabi_attribute 25, 1
   7              		.eabi_attribute 26, 1
   8              		.eabi_attribute 30, 1
   9              		.eabi_attribute 34, 1
  10              		.eabi_attribute 18, 4
  11              		.file	"driver_flash.c"
  12              		.text
  13              		.section	.text.flash_lock,"ax",%progbits
  14              		.align	1
  15              		.global	flash_lock
  16              		.arch armv7-m
  17              		.syntax unified
  18              		.thumb
  19              		.thumb_func
  20              		.fpu softvfp
  22              	flash_lock:
  23              		@ args = 0, pretend = 0, frame = 0
  24              		@ frame_needed = 0, uses_anonymous_args = 0
  25              		@ link register save eliminated.
  26 0000 024A     		ldr	r2, .L2
  27 0002 1369     		ldr	r3, [r2, #16]
  28 0004 43F08003 		orr	r3, r3, #128
  29 0008 1361     		str	r3, [r2, #16]
  30 000a 7047     		bx	lr
  31              	.L3:
  32              		.align	2
  33              	.L2:
  34 000c 00200240 		.word	1073881088
  36              		.section	.text.flash_unlock,"ax",%progbits
  37              		.align	1
  38              		.global	flash_unlock
  39              		.syntax unified
  40              		.thumb
  41              		.thumb_func
  42              		.fpu softvfp
  44              	flash_unlock:
  45              		@ args = 0, pretend = 0, frame = 0
  46              		@ frame_needed = 0, uses_anonymous_args = 0
  47              		@ link register save eliminated.
  48 0000 034B     		ldr	r3, .L5
  49 0002 044A     		ldr	r2, .L5+4
  50 0004 5A60     		str	r2, [r3, #4]
  51 0006 02F18832 		add	r2, r2, #-2004318072
  52 000a 5A60     		str	r2, [r3, #4]
  53 000c 7047     		bx	lr
  54              	.L6:
  55 000e 00BF     		.align	2
  56              	.L5:
  57 0010 00200240 		.word	1073881088
  58 0014 23016745 		.word	1164378403
  60              		.section	.text.flash_erase_all_pages,"ax",%progbits
  61              		.align	1
ARM GAS  F:\TEMP\ccedxofz.s 			page 2


  62              		.global	flash_erase_all_pages
  63              		.syntax unified
  64              		.thumb
  65              		.thumb_func
  66              		.fpu softvfp
  68              	flash_erase_all_pages:
  69              		@ args = 0, pretend = 0, frame = 0
  70              		@ frame_needed = 0, uses_anonymous_args = 0
  71              		@ link register save eliminated.
  72 0000 094B     		ldr	r3, .L10
  73 0002 1A69     		ldr	r2, [r3, #16]
  74 0004 42F00402 		orr	r2, r2, #4
  75 0008 1A61     		str	r2, [r3, #16]
  76 000a 1A69     		ldr	r2, [r3, #16]
  77 000c 42F04002 		orr	r2, r2, #64
  78 0010 1A61     		str	r2, [r3, #16]
  79 0012 1A46     		mov	r2, r3
  80              	.L8:
  81 0014 D368     		ldr	r3, [r2, #12]
  82 0016 13F0010F 		tst	r3, #1
  83 001a FBD1     		bne	.L8
  84 001c 024A     		ldr	r2, .L10
  85 001e 1369     		ldr	r3, [r2, #16]
  86 0020 03F00403 		and	r3, r3, #4
  87 0024 1361     		str	r3, [r2, #16]
  88 0026 7047     		bx	lr
  89              	.L11:
  90              		.align	2
  91              	.L10:
  92 0028 00200240 		.word	1073881088
  94              		.section	.text.flash_erase_page,"ax",%progbits
  95              		.align	1
  96              		.global	flash_erase_page
  97              		.syntax unified
  98              		.thumb
  99              		.thumb_func
 100              		.fpu softvfp
 102              	flash_erase_page:
 103              		@ args = 0, pretend = 0, frame = 0
 104              		@ frame_needed = 0, uses_anonymous_args = 0
 105              		@ link register save eliminated.
 106 0000 0A4B     		ldr	r3, .L15
 107 0002 1A69     		ldr	r2, [r3, #16]
 108 0004 42F00202 		orr	r2, r2, #2
 109 0008 1A61     		str	r2, [r3, #16]
 110 000a 5861     		str	r0, [r3, #20]
 111 000c 1A69     		ldr	r2, [r3, #16]
 112 000e 42F04002 		orr	r2, r2, #64
 113 0012 1A61     		str	r2, [r3, #16]
 114 0014 1A46     		mov	r2, r3
 115              	.L13:
 116 0016 D368     		ldr	r3, [r2, #12]
 117 0018 13F0010F 		tst	r3, #1
 118 001c FBD1     		bne	.L13
 119 001e 034A     		ldr	r2, .L15
 120 0020 1369     		ldr	r3, [r2, #16]
 121 0022 23F00203 		bic	r3, r3, #2
ARM GAS  F:\TEMP\ccedxofz.s 			page 3


 122 0026 1361     		str	r3, [r2, #16]
 123 0028 7047     		bx	lr
 124              	.L16:
 125 002a 00BF     		.align	2
 126              	.L15:
 127 002c 00200240 		.word	1073881088
 129              		.section	.text.flash_write,"ax",%progbits
 130              		.align	1
 131              		.global	flash_write
 132              		.syntax unified
 133              		.thumb
 134              		.thumb_func
 135              		.fpu softvfp
 137              	flash_write:
 138              		@ args = 0, pretend = 0, frame = 0
 139              		@ frame_needed = 0, uses_anonymous_args = 0
 140              		@ link register save eliminated.
 141 0000 0E4A     		ldr	r2, .L24
 142 0002 1369     		ldr	r3, [r2, #16]
 143 0004 43F00103 		orr	r3, r3, #1
 144 0008 1361     		str	r3, [r2, #16]
 145              	.L18:
 146 000a D368     		ldr	r3, [r2, #12]
 147 000c 13F0010F 		tst	r3, #1
 148 0010 FBD1     		bne	.L18
 149 0012 8BB2     		uxth	r3, r1
 150 0014 0380     		strh	r3, [r0]	@ movhi
 151 0016 094A     		ldr	r2, .L24
 152              	.L19:
 153 0018 D368     		ldr	r3, [r2, #12]
 154 001a 13F0010F 		tst	r3, #1
 155 001e FBD1     		bne	.L19
 156 0020 090C     		lsrs	r1, r1, #16
 157 0022 4180     		strh	r1, [r0, #2]	@ movhi
 158 0024 054A     		ldr	r2, .L24
 159              	.L20:
 160 0026 D368     		ldr	r3, [r2, #12]
 161 0028 13F0010F 		tst	r3, #1
 162 002c FBD1     		bne	.L20
 163 002e 034A     		ldr	r2, .L24
 164 0030 1369     		ldr	r3, [r2, #16]
 165 0032 23F00103 		bic	r3, r3, #1
 166 0036 1361     		str	r3, [r2, #16]
 167 0038 7047     		bx	lr
 168              	.L25:
 169 003a 00BF     		.align	2
 170              	.L24:
 171 003c 00200240 		.word	1073881088
 173              		.ident	"GCC: (GNU MCU Eclipse ARM Embedded GCC, 64-bit) 8.2.1 20181213 (release) [gcc-8-branch rev
ARM GAS  F:\TEMP\ccedxofz.s 			page 4

