ARM GAS  C:\Users\A4F7~1\AppData\Local\Temp\ccfwrfN0.s 			page 1


   1              		.cpu cortex-m3
   2              		.eabi_attribute 20, 1
   3              		.eabi_attribute 21, 1
   4              		.eabi_attribute 23, 3
   5              		.eabi_attribute 24, 1
   6              		.eabi_attribute 25, 1
   7              		.eabi_attribute 26, 1
   8              		.eabi_attribute 30, 1
   9              		.eabi_attribute 34, 1
  10              		.eabi_attribute 18, 4
  11              		.file	"main.c"
  12              		.text
  13              		.section	.text.resetCC,"ax",%progbits
  14              		.align	1
  15              		.global	resetCC
  16              		.arch armv7-m
  17              		.syntax unified
  18              		.thumb
  19              		.thumb_func
  20              		.fpu softvfp
  22              	resetCC:
  23              		@ args = 0, pretend = 0, frame = 0
  24              		@ frame_needed = 0, uses_anonymous_args = 0
  25              		@ link register save eliminated.
  26 0000 054B     		ldr	r3, .L2
  27 0002 0022     		movs	r2, #0
  28 0004 1A70     		strb	r2, [r3]
  29 0006 5A70     		strb	r2, [r3, #1]
  30 0008 5A60     		str	r2, [r3, #4]
  31 000a 9A60     		str	r2, [r3, #8]
  32 000c DA60     		str	r2, [r3, #12]
  33 000e 1A61     		str	r2, [r3, #16]
  34 0010 9A82     		strh	r2, [r3, #20]	@ movhi
  35 0012 DA82     		strh	r2, [r3, #22]	@ movhi
  36 0014 7047     		bx	lr
  37              	.L3:
  38 0016 00BF     		.align	2
  39              	.L2:
  40 0018 00000000 		.word	.LANCHOR0
  42              		.section	.text.copyCCtoLC,"ax",%progbits
  43              		.align	1
  44              		.global	copyCCtoLC
  45              		.syntax unified
  46              		.thumb
  47              		.thumb_func
  48              		.fpu softvfp
  50              	copyCCtoLC:
  51              		@ args = 0, pretend = 0, frame = 0
  52              		@ frame_needed = 0, uses_anonymous_args = 0
  53              		@ link register save eliminated.
  54 0000 30B4     		push	{r4, r5}
  55 0002 054C     		ldr	r4, .L6
  56 0004 054D     		ldr	r5, .L6+4
  57 0006 0FCD     		ldmia	r5!, {r0, r1, r2, r3}
  58 0008 0FC4     		stmia	r4!, {r0, r1, r2, r3}
  59 000a 95E80300 		ldm	r5, {r0, r1}
  60 000e 84E80300 		stm	r4, {r0, r1}
ARM GAS  C:\Users\A4F7~1\AppData\Local\Temp\ccfwrfN0.s 			page 2


  61 0012 30BC     		pop	{r4, r5}
  62 0014 7047     		bx	lr
  63              	.L7:
  64 0016 00BF     		.align	2
  65              	.L6:
  66 0018 00000000 		.word	.LANCHOR1
  67 001c 00000000 		.word	.LANCHOR0
  69              		.section	.text.delay_ms,"ax",%progbits
  70              		.align	1
  71              		.global	delay_ms
  72              		.syntax unified
  73              		.thumb
  74              		.thumb_func
  75              		.fpu softvfp
  77              	delay_ms:
  78              		@ args = 0, pretend = 0, frame = 0
  79              		@ frame_needed = 0, uses_anonymous_args = 0
  80              		@ link register save eliminated.
  81 0000 4000     		lsls	r0, r0, #1
  82 0002 80B2     		uxth	r0, r0
  83 0004 0C4B     		ldr	r3, .L11
  84 0006 9885     		strh	r0, [r3, #44]	@ movhi
  85 0008 9A8A     		ldrh	r2, [r3, #20]
  86 000a 42F00102 		orr	r2, r2, #1
  87 000e 9A82     		strh	r2, [r3, #20]	@ movhi
  88 0010 0022     		movs	r2, #0
  89 0012 9A84     		strh	r2, [r3, #36]	@ movhi
  90 0014 1A88     		ldrh	r2, [r3]
  91 0016 42F00102 		orr	r2, r2, #1
  92 001a 1A80     		strh	r2, [r3]	@ movhi
  93 001c 1A46     		mov	r2, r3
  94              	.L9:
  95 001e 138A     		ldrh	r3, [r2, #16]
  96 0020 13F0010F 		tst	r3, #1
  97 0024 FBD0     		beq	.L9
  98 0026 044A     		ldr	r2, .L11
  99 0028 138A     		ldrh	r3, [r2, #16]
 100 002a 23F00103 		bic	r3, r3, #1
 101 002e 1B04     		lsls	r3, r3, #16
 102 0030 1B0C     		lsrs	r3, r3, #16
 103 0032 1382     		strh	r3, [r2, #16]	@ movhi
 104 0034 7047     		bx	lr
 105              	.L12:
 106 0036 00BF     		.align	2
 107              	.L11:
 108 0038 002C0140 		.word	1073818624
 110              		.section	.text.DataBusRead,"ax",%progbits
 111              		.align	1
 112              		.global	DataBusRead
 113              		.syntax unified
 114              		.thumb
 115              		.thumb_func
 116              		.fpu softvfp
 118              	DataBusRead:
 119              		@ args = 0, pretend = 0, frame = 0
 120              		@ frame_needed = 0, uses_anonymous_args = 0
 121              		@ link register save eliminated.
ARM GAS  C:\Users\A4F7~1\AppData\Local\Temp\ccfwrfN0.s 			page 3


 122 0000 084B     		ldr	r3, .L14
 123 0002 1A68     		ldr	r2, [r3]
 124 0004 42F08832 		orr	r2, r2, #-2004318072
 125 0008 1A60     		str	r2, [r3]
 126 000a 5A68     		ldr	r2, [r3, #4]
 127 000c 42F08832 		orr	r2, r2, #-2004318072
 128 0010 5A60     		str	r2, [r3, #4]
 129 0012 1A68     		ldr	r2, [r3]
 130 0014 02F0CC32 		and	r2, r2, #-858993460
 131 0018 1A60     		str	r2, [r3]
 132 001a 5A68     		ldr	r2, [r3, #4]
 133 001c 02F0CC32 		and	r2, r2, #-858993460
 134 0020 5A60     		str	r2, [r3, #4]
 135 0022 7047     		bx	lr
 136              	.L15:
 137              		.align	2
 138              	.L14:
 139 0024 00180140 		.word	1073813504
 141              		.section	.text.DataBusWrite,"ax",%progbits
 142              		.align	1
 143              		.global	DataBusWrite
 144              		.syntax unified
 145              		.thumb
 146              		.thumb_func
 147              		.fpu softvfp
 149              	DataBusWrite:
 150              		@ args = 0, pretend = 0, frame = 0
 151              		@ frame_needed = 0, uses_anonymous_args = 0
 152              		@ link register save eliminated.
 153 0000 084B     		ldr	r3, .L17
 154 0002 1A68     		ldr	r2, [r3]
 155 0004 02F03332 		and	r2, r2, #858993459
 156 0008 1A60     		str	r2, [r3]
 157 000a 5A68     		ldr	r2, [r3, #4]
 158 000c 02F03332 		and	r2, r2, #858993459
 159 0010 5A60     		str	r2, [r3, #4]
 160 0012 1A68     		ldr	r2, [r3]
 161 0014 42F03332 		orr	r2, r2, #858993459
 162 0018 1A60     		str	r2, [r3]
 163 001a 5A68     		ldr	r2, [r3, #4]
 164 001c 42F03332 		orr	r2, r2, #858993459
 165 0020 5A60     		str	r2, [r3, #4]
 166 0022 7047     		bx	lr
 167              	.L18:
 168              		.align	2
 169              	.L17:
 170 0024 00180140 		.word	1073813504
 172              		.section	.text.SendMessage,"ax",%progbits
 173              		.align	1
 174              		.global	SendMessage
 175              		.syntax unified
 176              		.thumb
 177              		.thumb_func
 178              		.fpu softvfp
 180              	SendMessage:
 181              		@ args = 0, pretend = 0, frame = 0
 182              		@ frame_needed = 0, uses_anonymous_args = 0
ARM GAS  C:\Users\A4F7~1\AppData\Local\Temp\ccfwrfN0.s 			page 4


 183              		@ link register save eliminated.
 184 0000 104A     		ldr	r2, .L26
 185              	.L21:
 186 0002 10F8013B 		ldrb	r3, [r0], #1	@ zero_extendqisi2
 187 0006 9380     		strh	r3, [r2, #4]	@ movhi
 188              	.L20:
 189 0008 1388     		ldrh	r3, [r2]
 190 000a 13F0400F 		tst	r3, #64
 191 000e FBD0     		beq	.L20
 192 0010 1388     		ldrh	r3, [r2]
 193 0012 23F04003 		bic	r3, r3, #64
 194 0016 1B04     		lsls	r3, r3, #16
 195 0018 1B0C     		lsrs	r3, r3, #16
 196 001a 1380     		strh	r3, [r2]	@ movhi
 197 001c 0378     		ldrb	r3, [r0]	@ zero_extendqisi2
 198 001e 002B     		cmp	r3, #0
 199 0020 EFD1     		bne	.L21
 200 0022 084B     		ldr	r3, .L26
 201 0024 0A22     		movs	r2, #10
 202 0026 9A80     		strh	r2, [r3, #4]	@ movhi
 203 0028 1A46     		mov	r2, r3
 204              	.L22:
 205 002a 1388     		ldrh	r3, [r2]
 206 002c 13F0400F 		tst	r3, #64
 207 0030 FBD0     		beq	.L22
 208 0032 044A     		ldr	r2, .L26
 209 0034 1388     		ldrh	r3, [r2]
 210 0036 23F04003 		bic	r3, r3, #64
 211 003a 1B04     		lsls	r3, r3, #16
 212 003c 1B0C     		lsrs	r3, r3, #16
 213 003e 1380     		strh	r3, [r2]	@ movhi
 214 0040 7047     		bx	lr
 215              	.L27:
 216 0042 00BF     		.align	2
 217              	.L26:
 218 0044 00380140 		.word	1073821696
 220              		.section	.text.DefaultCommand,"ax",%progbits
 221              		.align	1
 222              		.global	DefaultCommand
 223              		.syntax unified
 224              		.thumb
 225              		.thumb_func
 226              		.fpu softvfp
 228              	DefaultCommand:
 229              		@ args = 0, pretend = 0, frame = 0
 230              		@ frame_needed = 0, uses_anonymous_args = 0
 231 0000 08B5     		push	{r3, lr}
 232 0002 054B     		ldr	r3, .L30
 233 0004 0122     		movs	r2, #1
 234 0006 9A70     		strb	r2, [r3, #2]
 235 0008 4FF6FF72 		movw	r2, #65535
 236 000c 1A80     		strh	r2, [r3]	@ movhi
 237 000e 0348     		ldr	r0, .L30+4
 238 0010 FFF7FEFF 		bl	SendMessage
 239 0014 08BD     		pop	{r3, pc}
 240              	.L31:
 241 0016 00BF     		.align	2
ARM GAS  C:\Users\A4F7~1\AppData\Local\Temp\ccfwrfN0.s 			page 5


 242              	.L30:
 243 0018 00000000 		.word	DeviceConfiguration
 244 001c 00000000 		.word	.LC0
 246              		.section	.text.HelpCommand,"ax",%progbits
 247              		.align	1
 248              		.global	HelpCommand
 249              		.syntax unified
 250              		.thumb
 251              		.thumb_func
 252              		.fpu softvfp
 254              	HelpCommand:
 255              		@ args = 0, pretend = 0, frame = 0
 256              		@ frame_needed = 0, uses_anonymous_args = 0
 257 0000 08B5     		push	{r3, lr}
 258 0002 0B48     		ldr	r0, .L34
 259 0004 FFF7FEFF 		bl	SendMessage
 260 0008 0A48     		ldr	r0, .L34+4
 261 000a FFF7FEFF 		bl	SendMessage
 262 000e 0A48     		ldr	r0, .L34+8
 263 0010 FFF7FEFF 		bl	SendMessage
 264 0014 0948     		ldr	r0, .L34+12
 265 0016 FFF7FEFF 		bl	SendMessage
 266 001a 0948     		ldr	r0, .L34+16
 267 001c FFF7FEFF 		bl	SendMessage
 268 0020 0848     		ldr	r0, .L34+20
 269 0022 FFF7FEFF 		bl	SendMessage
 270 0026 0848     		ldr	r0, .L34+24
 271 0028 FFF7FEFF 		bl	SendMessage
 272 002c 08BD     		pop	{r3, pc}
 273              	.L35:
 274 002e 00BF     		.align	2
 275              	.L34:
 276 0030 00000000 		.word	.LC1
 277 0034 28000000 		.word	.LC2
 278 0038 44000000 		.word	.LC3
 279 003c 5C000000 		.word	.LC4
 280 0040 60000000 		.word	.LC5
 281 0044 7C000000 		.word	.LC6
 282 0048 B4000000 		.word	.LC7
 284              		.section	.text.WriteCommand,"ax",%progbits
 285              		.align	1
 286              		.global	WriteCommand
 287              		.syntax unified
 288              		.thumb
 289              		.thumb_func
 290              		.fpu softvfp
 292              	WriteCommand:
 293              		@ args = 0, pretend = 0, frame = 0
 294              		@ frame_needed = 0, uses_anonymous_args = 0
 295 0000 08B5     		push	{r3, lr}
 296 0002 0121     		movs	r1, #1
 297 0004 2E20     		movs	r0, #46
 298 0006 FFF7FEFF 		bl	IO_SetLine
 299 000a 0121     		movs	r1, #1
 300 000c 2D20     		movs	r0, #45
 301 000e FFF7FEFF 		bl	IO_SetLine
 302 0012 0121     		movs	r1, #1
ARM GAS  C:\Users\A4F7~1\AppData\Local\Temp\ccfwrfN0.s 			page 6


 303 0014 2920     		movs	r0, #41
 304 0016 FFF7FEFF 		bl	IO_SetLine
 305 001a 0121     		movs	r1, #1
 306 001c 2A20     		movs	r0, #42
 307 001e FFF7FEFF 		bl	IO_SetLine
 308 0022 FFF7FEFF 		bl	DataBusWrite
 309 0026 1F4B     		ldr	r3, .L42
 310 0028 5968     		ldr	r1, [r3, #4]
 311 002a 1F4A     		ldr	r2, .L42+4
 312 002c D160     		str	r1, [r2, #12]
 313 002e 9A8A     		ldrh	r2, [r3, #20]
 314 0030 1E4B     		ldr	r3, .L42+8
 315 0032 DA60     		str	r2, [r3, #12]
 316 0034 A3F58A33 		sub	r3, r3, #70656
 317 0038 0022     		movs	r2, #0
 318 003a 9A84     		strh	r2, [r3, #36]	@ movhi
 319 003c 1A46     		mov	r2, r3
 320              	.L37:
 321 003e 938C     		ldrh	r3, [r2, #36]
 322 0040 9BB2     		uxth	r3, r3
 323 0042 022B     		cmp	r3, #2
 324 0044 FBD1     		bne	.L37
 325 0046 0021     		movs	r1, #0
 326 0048 0720     		movs	r0, #7
 327 004a FFF7FEFF 		bl	IO_SetLine
 328 004e 0021     		movs	r1, #0
 329 0050 0620     		movs	r0, #6
 330 0052 FFF7FEFF 		bl	IO_SetLine
 331 0056 0021     		movs	r1, #0
 332 0058 2920     		movs	r0, #41
 333 005a FFF7FEFF 		bl	IO_SetLine
 334 005e 0021     		movs	r1, #0
 335 0060 2A20     		movs	r0, #42
 336 0062 FFF7FEFF 		bl	IO_SetLine
 337 0066 0021     		movs	r1, #0
 338 0068 2D20     		movs	r0, #45
 339 006a FFF7FEFF 		bl	IO_SetLine
 340 006e 104A     		ldr	r2, .L42+12
 341              	.L38:
 342 0070 938C     		ldrh	r3, [r2, #36]
 343 0072 9BB2     		uxth	r3, r3
 344 0074 072B     		cmp	r3, #7
 345 0076 FBD1     		bne	.L38
 346 0078 0121     		movs	r1, #1
 347 007a 2D20     		movs	r0, #45
 348 007c FFF7FEFF 		bl	IO_SetLine
 349 0080 0121     		movs	r1, #1
 350 0082 0720     		movs	r0, #7
 351 0084 FFF7FEFF 		bl	IO_SetLine
 352 0088 0121     		movs	r1, #1
 353 008a 0620     		movs	r0, #6
 354 008c FFF7FEFF 		bl	IO_SetLine
 355 0090 0121     		movs	r1, #1
 356 0092 2920     		movs	r0, #41
 357 0094 FFF7FEFF 		bl	IO_SetLine
 358 0098 0121     		movs	r1, #1
 359 009a 2A20     		movs	r0, #42
ARM GAS  C:\Users\A4F7~1\AppData\Local\Temp\ccfwrfN0.s 			page 7


 360 009c FFF7FEFF 		bl	IO_SetLine
 361 00a0 08BD     		pop	{r3, pc}
 362              	.L43:
 363 00a2 00BF     		.align	2
 364              	.L42:
 365 00a4 00000000 		.word	.LANCHOR0
 366 00a8 00140140 		.word	1073812480
 367 00ac 00180140 		.word	1073813504
 368 00b0 00040040 		.word	1073742848
 370              		.section	.text.ReadCommand,"ax",%progbits
 371              		.align	1
 372              		.global	ReadCommand
 373              		.syntax unified
 374              		.thumb
 375              		.thumb_func
 376              		.fpu softvfp
 378              	ReadCommand:
 379              		@ args = 0, pretend = 0, frame = 0
 380              		@ frame_needed = 0, uses_anonymous_args = 0
 381 0000 10B5     		push	{r4, lr}
 382 0002 0121     		movs	r1, #1
 383 0004 2D20     		movs	r0, #45
 384 0006 FFF7FEFF 		bl	IO_SetLine
 385 000a 0121     		movs	r1, #1
 386 000c 2E20     		movs	r0, #46
 387 000e FFF7FEFF 		bl	IO_SetLine
 388 0012 0121     		movs	r1, #1
 389 0014 0720     		movs	r0, #7
 390 0016 FFF7FEFF 		bl	IO_SetLine
 391 001a 0121     		movs	r1, #1
 392 001c 0620     		movs	r0, #6
 393 001e FFF7FEFF 		bl	IO_SetLine
 394 0022 0121     		movs	r1, #1
 395 0024 2920     		movs	r0, #41
 396 0026 FFF7FEFF 		bl	IO_SetLine
 397 002a 0121     		movs	r1, #1
 398 002c 2A20     		movs	r0, #42
 399 002e FFF7FEFF 		bl	IO_SetLine
 400 0032 FFF7FEFF 		bl	DataBusRead
 401 0036 1D4B     		ldr	r3, .L50
 402 0038 5A68     		ldr	r2, [r3, #4]
 403 003a 1D4B     		ldr	r3, .L50+4
 404 003c DA60     		str	r2, [r3, #12]
 405 003e 1D4A     		ldr	r2, .L50+8
 406              	.L45:
 407 0040 938C     		ldrh	r3, [r2, #36]
 408 0042 9BB2     		uxth	r3, r3
 409 0044 022B     		cmp	r3, #2
 410 0046 FBD1     		bne	.L45
 411 0048 0021     		movs	r1, #0
 412 004a 0720     		movs	r0, #7
 413 004c FFF7FEFF 		bl	IO_SetLine
 414 0050 0021     		movs	r1, #0
 415 0052 0620     		movs	r0, #6
 416 0054 FFF7FEFF 		bl	IO_SetLine
 417 0058 0021     		movs	r1, #0
 418 005a 2E20     		movs	r0, #46
ARM GAS  C:\Users\A4F7~1\AppData\Local\Temp\ccfwrfN0.s 			page 8


 419 005c FFF7FEFF 		bl	IO_SetLine
 420 0060 0021     		movs	r1, #0
 421 0062 2920     		movs	r0, #41
 422 0064 FFF7FEFF 		bl	IO_SetLine
 423 0068 0021     		movs	r1, #0
 424 006a 2A20     		movs	r0, #42
 425 006c FFF7FEFF 		bl	IO_SetLine
 426 0070 114B     		ldr	r3, .L50+12
 427 0072 9C68     		ldr	r4, [r3, #8]
 428 0074 A4B2     		uxth	r4, r4
 429 0076 0F4A     		ldr	r2, .L50+8
 430              	.L46:
 431 0078 938C     		ldrh	r3, [r2, #36]
 432 007a 9BB2     		uxth	r3, r3
 433 007c 072B     		cmp	r3, #7
 434 007e FBD1     		bne	.L46
 435 0080 0121     		movs	r1, #1
 436 0082 0720     		movs	r0, #7
 437 0084 FFF7FEFF 		bl	IO_SetLine
 438 0088 0121     		movs	r1, #1
 439 008a 0620     		movs	r0, #6
 440 008c FFF7FEFF 		bl	IO_SetLine
 441 0090 0121     		movs	r1, #1
 442 0092 2920     		movs	r0, #41
 443 0094 FFF7FEFF 		bl	IO_SetLine
 444 0098 0121     		movs	r1, #1
 445 009a 2A20     		movs	r0, #42
 446 009c FFF7FEFF 		bl	IO_SetLine
 447 00a0 0121     		movs	r1, #1
 448 00a2 2E20     		movs	r0, #46
 449 00a4 FFF7FEFF 		bl	IO_SetLine
 450 00a8 2046     		mov	r0, r4
 451 00aa 10BD     		pop	{r4, pc}
 452              	.L51:
 453              		.align	2
 454              	.L50:
 455 00ac 00000000 		.word	.LANCHOR0
 456 00b0 00140140 		.word	1073812480
 457 00b4 00040040 		.word	1073742848
 458 00b8 00180140 		.word	1073813504
 460              		.section	.text.taskExecCommand,"ax",%progbits
 461              		.align	1
 462              		.global	taskExecCommand
 463              		.syntax unified
 464              		.thumb
 465              		.thumb_func
 466              		.fpu softvfp
 468              	taskExecCommand:
 469              		@ args = 0, pretend = 0, frame = 160
 470              		@ frame_needed = 0, uses_anonymous_args = 0
 471 0000 624B     		ldr	r3, .L72
 472 0002 1B78     		ldrb	r3, [r3]	@ zero_extendqisi2
 473 0004 002B     		cmp	r3, #0
 474 0006 00F0C080 		beq	.L66
 475 000a 2DE9F04F 		push	{r4, r5, r6, r7, r8, r9, r10, fp, lr}
 476 000e A9B0     		sub	sp, sp, #164
 477 0010 012B     		cmp	r3, #1
ARM GAS  C:\Users\A4F7~1\AppData\Local\Temp\ccfwrfN0.s 			page 9


 478 0012 0FD0     		beq	.L69
 479 0014 022B     		cmp	r3, #2
 480 0016 2FD0     		beq	.L70
 481 0018 033B     		subs	r3, r3, #3
 482 001a DBB2     		uxtb	r3, r3
 483 001c 012B     		cmp	r3, #1
 484 001e 4BD9     		bls	.L71
 485              	.L56:
 486 0020 FFF7FEFF 		bl	copyCCtoLC
 487 0024 FFF7FEFF 		bl	resetCC
 488 0028 584B     		ldr	r3, .L72
 489 002a 0022     		movs	r2, #0
 490 002c DA82     		strh	r2, [r3, #22]	@ movhi
 491 002e 29B0     		add	sp, sp, #164
 492              		@ sp needed
 493 0030 BDE8F08F 		pop	{r4, r5, r6, r7, r8, r9, r10, fp, pc}
 494              	.L69:
 495 0034 5648     		ldr	r0, .L72+4
 496 0036 FFF7FEFF 		bl	SendMessage
 497 003a 0024     		movs	r4, #0
 498 003c 554F     		ldr	r7, .L72+8
 499 003e 564E     		ldr	r6, .L72+12
 500 0040 534D     		ldr	r5, .L72+4
 501              	.L55:
 502 0042 FFF7FEFF 		bl	WriteCommand
 503 0046 FFF7FEFF 		bl	ReadCommand
 504 004a 0346     		mov	r3, r0
 505 004c 3A46     		mov	r2, r7
 506 004e 2821     		movs	r1, #40
 507 0050 0DEB0100 		add	r0, sp, r1
 508 0054 FFF7FEFF 		bl	snprintf
 509 0058 0AA8     		add	r0, sp, #40
 510 005a FFF7FEFF 		bl	SendMessage
 511 005e 3046     		mov	r0, r6
 512 0060 FFF7FEFF 		bl	SendMessage
 513 0064 2846     		mov	r0, r5
 514 0066 FFF7FEFF 		bl	SendMessage
 515 006a 0134     		adds	r4, r4, #1
 516 006c 474B     		ldr	r3, .L72
 517 006e DA8A     		ldrh	r2, [r3, #22]
 518 0070 A3B2     		uxth	r3, r4
 519 0072 9A42     		cmp	r2, r3
 520 0074 E5D2     		bcs	.L55
 521 0076 D3E7     		b	.L56
 522              	.L70:
 523 0078 4548     		ldr	r0, .L72+4
 524 007a FFF7FEFF 		bl	SendMessage
 525 007e 0024     		movs	r4, #0
 526 0080 444F     		ldr	r7, .L72+8
 527 0082 464E     		ldr	r6, .L72+16
 528 0084 424D     		ldr	r5, .L72+4
 529              	.L58:
 530 0086 FFF7FEFF 		bl	ReadCommand
 531 008a 0346     		mov	r3, r0
 532 008c 3A46     		mov	r2, r7
 533 008e 2821     		movs	r1, #40
 534 0090 0DEB0100 		add	r0, sp, r1
ARM GAS  C:\Users\A4F7~1\AppData\Local\Temp\ccfwrfN0.s 			page 10


 535 0094 FFF7FEFF 		bl	snprintf
 536 0098 0AA8     		add	r0, sp, #40
 537 009a FFF7FEFF 		bl	SendMessage
 538 009e 3046     		mov	r0, r6
 539 00a0 FFF7FEFF 		bl	SendMessage
 540 00a4 2846     		mov	r0, r5
 541 00a6 FFF7FEFF 		bl	SendMessage
 542 00aa 0134     		adds	r4, r4, #1
 543 00ac 374B     		ldr	r3, .L72
 544 00ae DA8A     		ldrh	r2, [r3, #22]
 545 00b0 A3B2     		uxth	r3, r4
 546 00b2 9A42     		cmp	r2, r3
 547 00b4 E7D2     		bcs	.L58
 548 00b6 B3E7     		b	.L56
 549              	.L71:
 550 00b8 3948     		ldr	r0, .L72+20
 551 00ba FFF7FEFF 		bl	SendMessage
 552 00be 4FF00009 		mov	r9, #0
 553 00c2 324C     		ldr	r4, .L72
 554 00c4 DFF8CC80 		ldr	r8, .L72+8
 555 00c8 2827     		movs	r7, #40
 556 00ca 364D     		ldr	r5, .L72+24
 557 00cc 05F10C06 		add	r6, r5, #12
 558              	.L61:
 559 00d0 2F48     		ldr	r0, .L72+4
 560 00d2 FFF7FEFF 		bl	SendMessage
 561 00d6 6368     		ldr	r3, [r4, #4]
 562 00d8 4246     		mov	r2, r8
 563 00da 3946     		mov	r1, r7
 564 00dc 1EA8     		add	r0, sp, #120
 565 00de FFF7FEFF 		bl	snprintf
 566 00e2 A38A     		ldrh	r3, [r4, #20]
 567 00e4 4246     		mov	r2, r8
 568 00e6 3946     		mov	r1, r7
 569 00e8 14A8     		add	r0, sp, #80
 570 00ea FFF7FEFF 		bl	snprintf
 571 00ee 2E4A     		ldr	r2, .L72+28
 572 00f0 01AB     		add	r3, sp, #4
 573 00f2 07CA     		ldm	r2, {r0, r1, r2}
 574 00f4 03C3     		stmia	r3!, {r0, r1}
 575 00f6 23F8022B 		strh	r2, [r3], #2	@ movhi
 576 00fa 120C     		lsrs	r2, r2, #16
 577 00fc 1A70     		strb	r2, [r3]
 578 00fe 1EA9     		add	r1, sp, #120
 579 0100 01A8     		add	r0, sp, #4
 580 0102 FFF7FEFF 		bl	strcat
 581 0106 FFF7FEFF 		bl	SendMessage
 582 010a 04AB     		add	r3, sp, #16
 583 010c 95E80700 		ldm	r5, {r0, r1, r2}
 584 0110 03C3     		stmia	r3!, {r0, r1}
 585 0112 1A80     		strh	r2, [r3]	@ movhi
 586 0114 4FF0000B 		mov	fp, #0
 587 0118 8DF81AB0 		strb	fp, [sp, #26]
 588 011c 14A9     		add	r1, sp, #80
 589 011e 04A8     		add	r0, sp, #16
 590 0120 FFF7FEFF 		bl	strcat
 591 0124 FFF7FEFF 		bl	SendMessage
ARM GAS  C:\Users\A4F7~1\AppData\Local\Temp\ccfwrfN0.s 			page 11


 592 0128 FFF7FEFF 		bl	WriteCommand
 593 012c FFF7FEFF 		bl	ReadCommand
 594 0130 8246     		mov	r10, r0
 595 0132 0346     		mov	r3, r0
 596 0134 4246     		mov	r2, r8
 597 0136 3946     		mov	r1, r7
 598 0138 0AA8     		add	r0, sp, #40
 599 013a FFF7FEFF 		bl	snprintf
 600 013e 07AB     		add	r3, sp, #28
 601 0140 96E80700 		ldm	r6, {r0, r1, r2}
 602 0144 03C3     		stmia	r3!, {r0, r1}
 603 0146 1A80     		strh	r2, [r3]	@ movhi
 604 0148 8DF826B0 		strb	fp, [sp, #38]
 605 014c 0AA9     		add	r1, sp, #40
 606 014e 07A8     		add	r0, sp, #28
 607 0150 FFF7FEFF 		bl	strcat
 608 0154 FFF7FEFF 		bl	SendMessage
 609 0158 6368     		ldr	r3, [r4, #4]
 610 015a 2269     		ldr	r2, [r4, #16]
 611 015c 1344     		add	r3, r3, r2
 612 015e 6360     		str	r3, [r4, #4]
 613 0160 A38A     		ldrh	r3, [r4, #20]
 614 0162 5345     		cmp	r3, r10
 615 0164 0CBF     		ite	eq
 616 0166 1148     		ldreq	r0, .L72+32
 617 0168 1148     		ldrne	r0, .L72+36
 618 016a FFF7FEFF 		bl	SendMessage
 619 016e 1148     		ldr	r0, .L72+40
 620 0170 FFF7FEFF 		bl	SendMessage
 621 0174 9620     		movs	r0, #150
 622 0176 FFF7FEFF 		bl	delay_ms
 623 017a 09F10109 		add	r9, r9, #1
 624 017e E28A     		ldrh	r2, [r4, #22]
 625 0180 1FFA89F3 		uxth	r3, r9
 626 0184 9A42     		cmp	r2, r3
 627 0186 A3D2     		bcs	.L61
 628 0188 4AE7     		b	.L56
 629              	.L66:
 630 018a 7047     		bx	lr
 631              	.L73:
 632              		.align	2
 633              	.L72:
 634 018c 00000000 		.word	.LANCHOR0
 635 0190 00000000 		.word	.LC8
 636 0194 3C000000 		.word	.LC9
 637 0198 40000000 		.word	.LC10
 638 019c 5C000000 		.word	.LC11
 639 01a0 78000000 		.word	.LC12
 640 01a4 00000000 		.word	.LANCHOR2
 641 01a8 D8000000 		.word	.LC13
 642 01ac 8C000000 		.word	.LC16
 643 01b0 90000000 		.word	.LC17
 644 01b4 9C000000 		.word	.LC18
 646              		.section	.text.errorType,"ax",%progbits
 647              		.align	1
 648              		.global	errorType
 649              		.syntax unified
ARM GAS  C:\Users\A4F7~1\AppData\Local\Temp\ccfwrfN0.s 			page 12


 650              		.thumb
 651              		.thumb_func
 652              		.fpu softvfp
 654              	errorType:
 655              		@ args = 0, pretend = 0, frame = 0
 656              		@ frame_needed = 0, uses_anonymous_args = 0
 657 0000 F8B5     		push	{r3, r4, r5, r6, r7, lr}
 658 0002 0A28     		cmp	r0, #10
 659 0004 3FD8     		bhi	.L75
 660 0006 DFE800F0 		tbb	[pc, r0]
 661              	.L77:
 662 000a 06       		.byte	(.L87-.L77)/2
 663 000b 16       		.byte	(.L86-.L77)/2
 664 000c 1A       		.byte	(.L85-.L77)/2
 665 000d 1E       		.byte	(.L84-.L77)/2
 666 000e 22       		.byte	(.L83-.L77)/2
 667 000f 26       		.byte	(.L82-.L77)/2
 668 0010 2A       		.byte	(.L81-.L77)/2
 669 0011 2E       		.byte	(.L80-.L77)/2
 670 0012 32       		.byte	(.L79-.L77)/2
 671 0013 36       		.byte	(.L78-.L77)/2
 672 0014 3A       		.byte	(.L76-.L77)/2
 673 0015 00       		.p2align 1
 674              	.L87:
 675 0016 1E4D     		ldr	r5, .L90
 676 0018 2846     		mov	r0, r5
 677 001a FFF7FEFF 		bl	strlen
 678 001e 0746     		mov	r7, r0
 679 0020 4619     		adds	r6, r0, r5
 680 0022 1C4C     		ldr	r4, .L90+4
 681 0024 0FCC     		ldmia	r4!, {r0, r1, r2, r3}
 682 0026 7851     		str	r0, [r7, r5]	@ unaligned
 683 0028 7160     		str	r1, [r6, #4]	@ unaligned
 684 002a B260     		str	r2, [r6, #8]	@ unaligned
 685 002c F360     		str	r3, [r6, #12]	@ unaligned
 686 002e 2846     		mov	r0, r5
 687 0030 FFF7FEFF 		bl	SendMessage
 688              	.L74:
 689 0034 F8BD     		pop	{r3, r4, r5, r6, r7, pc}
 690              	.L86:
 691 0036 1848     		ldr	r0, .L90+8
 692 0038 FFF7FEFF 		bl	SendMessage
 693 003c FAE7     		b	.L74
 694              	.L85:
 695 003e 1748     		ldr	r0, .L90+12
 696 0040 FFF7FEFF 		bl	SendMessage
 697 0044 F6E7     		b	.L74
 698              	.L84:
 699 0046 1648     		ldr	r0, .L90+16
 700 0048 FFF7FEFF 		bl	SendMessage
 701 004c F2E7     		b	.L74
 702              	.L83:
 703 004e 1548     		ldr	r0, .L90+20
 704 0050 FFF7FEFF 		bl	SendMessage
 705 0054 EEE7     		b	.L74
 706              	.L82:
 707 0056 1448     		ldr	r0, .L90+24
ARM GAS  C:\Users\A4F7~1\AppData\Local\Temp\ccfwrfN0.s 			page 13


 708 0058 FFF7FEFF 		bl	SendMessage
 709 005c EAE7     		b	.L74
 710              	.L81:
 711 005e 1348     		ldr	r0, .L90+28
 712 0060 FFF7FEFF 		bl	SendMessage
 713 0064 E6E7     		b	.L74
 714              	.L80:
 715 0066 1248     		ldr	r0, .L90+32
 716 0068 FFF7FEFF 		bl	SendMessage
 717 006c E2E7     		b	.L74
 718              	.L79:
 719 006e 1148     		ldr	r0, .L90+36
 720 0070 FFF7FEFF 		bl	SendMessage
 721 0074 DEE7     		b	.L74
 722              	.L78:
 723 0076 1048     		ldr	r0, .L90+40
 724 0078 FFF7FEFF 		bl	SendMessage
 725 007c DAE7     		b	.L74
 726              	.L76:
 727 007e 0F48     		ldr	r0, .L90+44
 728 0080 FFF7FEFF 		bl	SendMessage
 729 0084 D6E7     		b	.L74
 730              	.L75:
 731 0086 0E48     		ldr	r0, .L90+48
 732 0088 FFF7FEFF 		bl	printf
 733 008c D2E7     		b	.L74
 734              	.L91:
 735 008e 00BF     		.align	2
 736              	.L90:
 737 0090 00000000 		.word	recieved
 738 0094 00000000 		.word	.LC19
 739 0098 10000000 		.word	.LC20
 740 009c 24000000 		.word	.LC21
 741 00a0 3C000000 		.word	.LC22
 742 00a4 78000000 		.word	.LC23
 743 00a8 9C000000 		.word	.LC24
 744 00ac C4000000 		.word	.LC25
 745 00b0 E0000000 		.word	.LC26
 746 00b4 FC000000 		.word	.LC27
 747 00b8 1C010000 		.word	.LC28
 748 00bc 4C010000 		.word	.LC29
 749 00c0 5C010000 		.word	.LC30
 751              		.section	.text.SaveCommand,"ax",%progbits
 752              		.align	1
 753              		.global	SaveCommand
 754              		.syntax unified
 755              		.thumb
 756              		.thumb_func
 757              		.fpu softvfp
 759              	SaveCommand:
 760              		@ args = 0, pretend = 0, frame = 0
 761              		@ frame_needed = 0, uses_anonymous_args = 0
 762 0000 38B5     		push	{r3, r4, r5, lr}
 763 0002 0D4B     		ldr	r3, .L94
 764 0004 1D68     		ldr	r5, [r3]
 765 0006 FFF7FEFF 		bl	flash_unlock
 766 000a 0C4C     		ldr	r4, .L94+4
ARM GAS  C:\Users\A4F7~1\AppData\Local\Temp\ccfwrfN0.s 			page 14


 767 000c 2046     		mov	r0, r4
 768 000e FFF7FEFF 		bl	flash_erase_page
 769 0012 0B49     		ldr	r1, .L94+8
 770 0014 2046     		mov	r0, r4
 771 0016 FFF7FEFF 		bl	flash_write
 772 001a 691C     		adds	r1, r5, #1
 773 001c 0948     		ldr	r0, .L94+12
 774 001e FFF7FEFF 		bl	flash_write
 775 0022 094B     		ldr	r3, .L94+16
 776 0024 1968     		ldr	r1, [r3]	@ unaligned
 777 0026 0948     		ldr	r0, .L94+20
 778 0028 FFF7FEFF 		bl	flash_write
 779 002c FFF7FEFF 		bl	flash_lock
 780 0030 0748     		ldr	r0, .L94+24
 781 0032 FFF7FEFF 		bl	SendMessage
 782 0036 38BD     		pop	{r3, r4, r5, pc}
 783              	.L95:
 784              		.align	2
 785              	.L94:
 786 0038 00000000 		.word	FlashControl
 787 003c 00F00008 		.word	134279168
 788 0040 5B138F24 		.word	613356379
 789 0044 04F00008 		.word	134279172
 790 0048 00000000 		.word	DeviceConfiguration
 791 004c 08F00008 		.word	134279176
 792 0050 00000000 		.word	.LC31
 794              		.section	.text.initDeviceConfig,"ax",%progbits
 795              		.align	1
 796              		.global	initDeviceConfig
 797              		.syntax unified
 798              		.thumb
 799              		.thumb_func
 800              		.fpu softvfp
 802              	initDeviceConfig:
 803              		@ args = 0, pretend = 0, frame = 0
 804              		@ frame_needed = 0, uses_anonymous_args = 0
 805 0000 08B5     		push	{r3, lr}
 806 0002 144B     		ldr	r3, .L105
 807 0004 1968     		ldr	r1, [r3]
 808 0006 144A     		ldr	r2, .L105+4
 809 0008 5160     		str	r1, [r2, #4]
 810 000a 0433     		adds	r3, r3, #4
 811 000c 1B68     		ldr	r3, [r3]
 812 000e 1360     		str	r3, [r2]
 813 0010 B3F1FF3F 		cmp	r3, #-1
 814 0014 02D0     		beq	.L97
 815 0016 114B     		ldr	r3, .L105+8
 816 0018 9942     		cmp	r1, r3
 817 001a 02D0     		beq	.L104
 818              	.L97:
 819 001c FFF7FEFF 		bl	DefaultCommand
 820              	.L96:
 821 0020 08BD     		pop	{r3, pc}
 822              	.L104:
 823 0022 0F4B     		ldr	r3, .L105+12
 824 0024 0F4A     		ldr	r2, .L105+16
 825 0026 1068     		ldr	r0, [r2]
ARM GAS  C:\Users\A4F7~1\AppData\Local\Temp\ccfwrfN0.s 			page 15


 826 0028 1860     		str	r0, [r3]	@ unaligned
 827 002a 1B88     		ldrh	r3, [r3]
 828 002c FF2B     		cmp	r3, #255
 829 002e 0CBF     		ite	eq
 830 0030 0D48     		ldreq	r0, .L105+20
 831 0032 0E48     		ldrne	r0, .L105+24
 832 0034 FFF7FEFF 		bl	SendMessage
 833 0038 094B     		ldr	r3, .L105+12
 834 003a 9B78     		ldrb	r3, [r3, #2]	@ zero_extendqisi2
 835 003c 33B9     		cbnz	r3, .L100
 836 003e 0C48     		ldr	r0, .L105+28
 837 0040 FFF7FEFF 		bl	SendMessage
 838              	.L101:
 839 0044 0B48     		ldr	r0, .L105+32
 840 0046 FFF7FEFF 		bl	SendMessage
 841 004a E9E7     		b	.L96
 842              	.L100:
 843 004c 0A48     		ldr	r0, .L105+36
 844 004e FFF7FEFF 		bl	SendMessage
 845 0052 F7E7     		b	.L101
 846              	.L106:
 847              		.align	2
 848              	.L105:
 849 0054 00F00008 		.word	134279168
 850 0058 00000000 		.word	FlashControl
 851 005c 5B138F24 		.word	613356379
 852 0060 00000000 		.word	DeviceConfiguration
 853 0064 08F00008 		.word	134279176
 854 0068 00000000 		.word	.LC32
 855 006c 0C000000 		.word	.LC33
 856 0070 18000000 		.word	.LC34
 857 0074 38000000 		.word	.LC36
 858 0078 28000000 		.word	.LC35
 860              		.section	.text.parseUARTMessage,"ax",%progbits
 861              		.align	1
 862              		.global	parseUARTMessage
 863              		.syntax unified
 864              		.thumb
 865              		.thumb_func
 866              		.fpu softvfp
 868              	parseUARTMessage:
 869              		@ args = 0, pretend = 0, frame = 0
 870              		@ frame_needed = 0, uses_anonymous_args = 0
 871 0000 F8B5     		push	{r3, r4, r5, r6, r7, lr}
 872 0002 B049     		ldr	r1, .L205
 873 0004 FFF7FEFF 		bl	strtok
 874 0008 AF4B     		ldr	r3, .L205+4
 875 000a 1860     		str	r0, [r3]
 876 000c 0028     		cmp	r0, #0
 877 000e 00F03483 		beq	.L137
 878 0012 0446     		mov	r4, r0
 879 0014 FFF7FEFF 		bl	strlen
 880 0018 0546     		mov	r5, r0
 881 001a 0246     		mov	r2, r0
 882 001c AB49     		ldr	r1, .L205+8
 883 001e 2046     		mov	r0, r4
 884 0020 FFF7FEFF 		bl	strncmp
ARM GAS  C:\Users\A4F7~1\AppData\Local\Temp\ccfwrfN0.s 			page 16


 885 0024 28B1     		cbz	r0, .L109
 886 0026 2A46     		mov	r2, r5
 887 0028 A949     		ldr	r1, .L205+12
 888 002a 2046     		mov	r0, r4
 889 002c FFF7FEFF 		bl	strncmp
 890 0030 08B9     		cbnz	r0, .L110
 891              	.L109:
 892 0032 032D     		cmp	r5, #3
 893 0034 43D0     		beq	.L178
 894              	.L110:
 895 0036 0322     		movs	r2, #3
 896 0038 A649     		ldr	r1, .L205+16
 897 003a 2046     		mov	r0, r4
 898 003c FFF7FEFF 		bl	strncmp
 899 0040 38B1     		cbz	r0, .L113
 900 0042 0322     		movs	r2, #3
 901 0044 A449     		ldr	r1, .L205+20
 902 0046 2046     		mov	r0, r4
 903 0048 FFF7FEFF 		bl	strncmp
 904 004c 0028     		cmp	r0, #0
 905 004e 40F0F980 		bne	.L114
 906              	.L113:
 907 0052 032D     		cmp	r5, #3
 908 0054 00F0A980 		beq	.L179
 909 0058 2A46     		mov	r2, r5
 910 005a A049     		ldr	r1, .L205+24
 911 005c 2046     		mov	r0, r4
 912 005e FFF7FEFF 		bl	strncmp
 913 0062 50B1     		cbz	r0, .L120
 914              	.L136:
 915 0064 2A46     		mov	r2, r5
 916 0066 9E49     		ldr	r1, .L205+28
 917 0068 2046     		mov	r0, r4
 918 006a FFF7FEFF 		bl	strncmp
 919 006e 0028     		cmp	r0, #0
 920 0070 40F0B181 		bne	.L119
 921              	.L118:
 922 0074 032D     		cmp	r5, #3
 923 0076 00F0EE80 		beq	.L180
 924              	.L120:
 925 007a 2A46     		mov	r2, r5
 926 007c 9949     		ldr	r1, .L205+32
 927 007e 2046     		mov	r0, r4
 928 0080 FFF7FEFF 		bl	strncmp
 929 0084 0028     		cmp	r0, #0
 930 0086 40F09382 		bne	.L127
 931 008a 042D     		cmp	r5, #4
 932 008c 00F04D82 		beq	.L181
 933 0090 2A46     		mov	r2, r5
 934 0092 9549     		ldr	r1, .L205+36
 935 0094 2046     		mov	r0, r4
 936 0096 FFF7FEFF 		bl	strncmp
 937 009a 0028     		cmp	r0, #0
 938 009c 00F09282 		beq	.L130
 939              	.L129:
 940 00a0 2A46     		mov	r2, r5
 941 00a2 9249     		ldr	r1, .L205+40
ARM GAS  C:\Users\A4F7~1\AppData\Local\Temp\ccfwrfN0.s 			page 17


 942 00a4 2046     		mov	r0, r4
 943 00a6 FFF7FEFF 		bl	strncmp
 944 00aa 0028     		cmp	r0, #0
 945 00ac 40F08A82 		bne	.L130
 946 00b0 042D     		cmp	r5, #4
 947 00b2 40F08782 		bne	.L130
 948 00b6 FFF7FEFF 		bl	HelpCommand
 949 00ba 0024     		movs	r4, #0
 950 00bc DEE2     		b	.L108
 951              	.L178:
 952 00be 8C49     		ldr	r1, .L205+44
 953 00c0 0020     		movs	r0, #0
 954 00c2 FFF7FEFF 		bl	strtok
 955 00c6 0446     		mov	r4, r0
 956 00c8 8A49     		ldr	r1, .L205+48
 957 00ca 0020     		movs	r0, #0
 958 00cc FFF7FEFF 		bl	strtok
 959 00d0 0546     		mov	r5, r0
 960 00d2 7D4B     		ldr	r3, .L205+4
 961 00d4 5C60     		str	r4, [r3, #4]
 962 00d6 5861     		str	r0, [r3, #20]
 963 00d8 002C     		cmp	r4, #0
 964 00da 00F0D382 		beq	.L138
 965 00de 0028     		cmp	r0, #0
 966 00e0 00F0D282 		beq	.L139
 967 00e4 2046     		mov	r0, r4
 968 00e6 FFF7FEFF 		bl	strlen
 969 00ea 0646     		mov	r6, r0
 970 00ec 2846     		mov	r0, r5
 971 00ee FFF7FEFF 		bl	strlen
 972 00f2 0546     		mov	r5, r0
 973 00f4 3146     		mov	r1, r6
 974 00f6 2046     		mov	r0, r4
 975 00f8 FFF7FEFF 		bl	checkHexFormat
 976 00fc 08B1     		cbz	r0, .L182
 977 00fe 0424     		movs	r4, #4
 978 0100 BCE2     		b	.L108
 979              	.L182:
 980 0102 2946     		mov	r1, r5
 981 0104 704B     		ldr	r3, .L205+4
 982 0106 5869     		ldr	r0, [r3, #20]
 983 0108 FFF7FEFF 		bl	checkHexFormat
 984 010c 08B1     		cbz	r0, .L183
 985 010e 0424     		movs	r4, #4
 986 0110 B4E2     		b	.L108
 987              	.L183:
 988 0112 1022     		movs	r2, #16
 989 0114 0021     		movs	r1, #0
 990 0116 6C4B     		ldr	r3, .L205+4
 991 0118 5868     		ldr	r0, [r3, #4]
 992 011a FFF7FEFF 		bl	strtol
 993 011e 6FF07F41 		mvn	r1, #-16777216
 994 0122 FFF7FEFF 		bl	checkRange
 995 0126 08B1     		cbz	r0, .L184
 996 0128 0224     		movs	r4, #2
 997 012a A7E2     		b	.L108
 998              	.L184:
ARM GAS  C:\Users\A4F7~1\AppData\Local\Temp\ccfwrfN0.s 			page 18


 999 012c 1022     		movs	r2, #16
 1000 012e 0021     		movs	r1, #0
 1001 0130 654B     		ldr	r3, .L205+4
 1002 0132 5869     		ldr	r0, [r3, #20]
 1003 0134 FFF7FEFF 		bl	strtol
 1004 0138 6F4B     		ldr	r3, .L205+52
 1005 013a 1988     		ldrh	r1, [r3]
 1006 013c FFF7FEFF 		bl	checkRange
 1007 0140 0446     		mov	r4, r0
 1008 0142 0028     		cmp	r0, #0
 1009 0144 40F0A282 		bne	.L143
 1010 0148 6B4B     		ldr	r3, .L205+52
 1011 014a 1A88     		ldrh	r2, [r3]
 1012 014c 4FF6FF73 		movw	r3, #65535
 1013 0150 9A42     		cmp	r2, r3
 1014 0152 1ED0     		beq	.L185
 1015              	.L111:
 1016 0154 694D     		ldr	r5, .L205+56
 1017 0156 0123     		movs	r3, #1
 1018 0158 2B70     		strb	r3, [r5]
 1019 015a 5B4E     		ldr	r6, .L205+4
 1020 015c 1022     		movs	r2, #16
 1021 015e 0021     		movs	r1, #0
 1022 0160 7068     		ldr	r0, [r6, #4]
 1023 0162 FFF7FEFF 		bl	strtol
 1024 0166 6860     		str	r0, [r5, #4]
 1025 0168 1022     		movs	r2, #16
 1026 016a 0021     		movs	r1, #0
 1027 016c 7069     		ldr	r0, [r6, #20]
 1028 016e FFF7FEFF 		bl	strtol
 1029 0172 A882     		strh	r0, [r5, #20]	@ movhi
 1030 0174 0023     		movs	r3, #0
 1031 0176 AB60     		str	r3, [r5, #8]
 1032 0178 EB60     		str	r3, [r5, #12]
 1033 017a 2B61     		str	r3, [r5, #16]
 1034 017c EB82     		strh	r3, [r5, #22]	@ movhi
 1035 017e 3268     		ldr	r2, [r6]
 1036 0180 524B     		ldr	r3, .L205+8
 1037 0182 9A42     		cmp	r2, r3
 1038 0184 07BF     		ittee	eq
 1039 0186 2B46     		moveq	r3, r5
 1040 0188 0122     		moveq	r2, #1
 1041 018a 5C4B     		ldrne	r3, .L205+56
 1042 018c 0222     		movne	r2, #2
 1043 018e 5A70     		strb	r2, [r3, #1]
 1044 0190 74E2     		b	.L108
 1045              	.L185:
 1046 0192 1022     		movs	r2, #16
 1047 0194 0021     		movs	r1, #0
 1048 0196 4C4B     		ldr	r3, .L205+4
 1049 0198 5868     		ldr	r0, [r3, #4]
 1050 019a FFF7FEFF 		bl	strtol
 1051 019e FFF7FEFF 		bl	checkParity
 1052 01a2 0028     		cmp	r0, #0
 1053 01a4 D6D0     		beq	.L111
 1054 01a6 0324     		movs	r4, #3
 1055 01a8 68E2     		b	.L108
ARM GAS  C:\Users\A4F7~1\AppData\Local\Temp\ccfwrfN0.s 			page 19


 1056              	.L179:
 1057 01aa 5249     		ldr	r1, .L205+48
 1058 01ac 0020     		movs	r0, #0
 1059 01ae FFF7FEFF 		bl	strtok
 1060 01b2 0446     		mov	r4, r0
 1061 01b4 444B     		ldr	r3, .L205+4
 1062 01b6 5860     		str	r0, [r3, #4]
 1063 01b8 0028     		cmp	r0, #0
 1064 01ba 00F06982 		beq	.L145
 1065 01be FFF7FEFF 		bl	strlen
 1066 01c2 0146     		mov	r1, r0
 1067 01c4 2046     		mov	r0, r4
 1068 01c6 FFF7FEFF 		bl	checkHexFormat
 1069 01ca 08B1     		cbz	r0, .L186
 1070 01cc 0624     		movs	r4, #6
 1071 01ce 55E2     		b	.L108
 1072              	.L186:
 1073 01d0 1022     		movs	r2, #16
 1074 01d2 0021     		movs	r1, #0
 1075 01d4 3C4B     		ldr	r3, .L205+4
 1076 01d6 5868     		ldr	r0, [r3, #4]
 1077 01d8 FFF7FEFF 		bl	strtol
 1078 01dc 6FF07F41 		mvn	r1, #-16777216
 1079 01e0 FFF7FEFF 		bl	checkRange
 1080 01e4 0446     		mov	r4, r0
 1081 01e6 0028     		cmp	r0, #0
 1082 01e8 40F05482 		bne	.L147
 1083 01ec 424B     		ldr	r3, .L205+52
 1084 01ee 1A88     		ldrh	r2, [r3]
 1085 01f0 4FF6FF73 		movw	r3, #65535
 1086 01f4 9A42     		cmp	r2, r3
 1087 01f6 19D0     		beq	.L187
 1088              	.L116:
 1089 01f8 404D     		ldr	r5, .L205+56
 1090 01fa 0223     		movs	r3, #2
 1091 01fc 2B70     		strb	r3, [r5]
 1092 01fe 324E     		ldr	r6, .L205+4
 1093 0200 1022     		movs	r2, #16
 1094 0202 0021     		movs	r1, #0
 1095 0204 7068     		ldr	r0, [r6, #4]
 1096 0206 FFF7FEFF 		bl	strtol
 1097 020a 6860     		str	r0, [r5, #4]
 1098 020c 0023     		movs	r3, #0
 1099 020e AB82     		strh	r3, [r5, #20]	@ movhi
 1100 0210 AB60     		str	r3, [r5, #8]
 1101 0212 EB60     		str	r3, [r5, #12]
 1102 0214 2B61     		str	r3, [r5, #16]
 1103 0216 EB82     		strh	r3, [r5, #22]	@ movhi
 1104 0218 3268     		ldr	r2, [r6]
 1105 021a 2E4B     		ldr	r3, .L205+16
 1106 021c 9A42     		cmp	r2, r3
 1107 021e 07BF     		ittee	eq
 1108 0220 2B46     		moveq	r3, r5
 1109 0222 0122     		moveq	r2, #1
 1110 0224 354B     		ldrne	r3, .L205+56
 1111 0226 0222     		movne	r2, #2
 1112 0228 5A70     		strb	r2, [r3, #1]
ARM GAS  C:\Users\A4F7~1\AppData\Local\Temp\ccfwrfN0.s 			page 20


 1113 022a 27E2     		b	.L108
 1114              	.L187:
 1115 022c 1022     		movs	r2, #16
 1116 022e 0021     		movs	r1, #0
 1117 0230 254B     		ldr	r3, .L205+4
 1118 0232 5868     		ldr	r0, [r3, #4]
 1119 0234 FFF7FEFF 		bl	strtol
 1120 0238 FFF7FEFF 		bl	checkParity
 1121 023c 0028     		cmp	r0, #0
 1122 023e DBD0     		beq	.L116
 1123 0240 0324     		movs	r4, #3
 1124 0242 1BE2     		b	.L108
 1125              	.L114:
 1126 0244 2A46     		mov	r2, r5
 1127 0246 2549     		ldr	r1, .L205+24
 1128 0248 2046     		mov	r0, r4
 1129 024a FFF7FEFF 		bl	strncmp
 1130 024e 0028     		cmp	r0, #0
 1131 0250 3FF410AF 		beq	.L118
 1132 0254 06E7     		b	.L136
 1133              	.L180:
 1134 0256 2A49     		ldr	r1, .L205+60
 1135 0258 0020     		movs	r0, #0
 1136 025a FFF7FEFF 		bl	strtok
 1137 025e 0446     		mov	r4, r0
 1138 0260 2349     		ldr	r1, .L205+44
 1139 0262 0020     		movs	r0, #0
 1140 0264 FFF7FEFF 		bl	strtok
 1141 0268 0546     		mov	r5, r0
 1142 026a 2249     		ldr	r1, .L205+48
 1143 026c 0020     		movs	r0, #0
 1144 026e FFF7FEFF 		bl	strtok
 1145 0272 0646     		mov	r6, r0
 1146 0274 144B     		ldr	r3, .L205+4
 1147 0276 9C60     		str	r4, [r3, #8]
 1148 0278 DD60     		str	r5, [r3, #12]
 1149 027a 9861     		str	r0, [r3, #24]
 1150 027c 002C     		cmp	r4, #0
 1151 027e 00F00B82 		beq	.L149
 1152 0282 002D     		cmp	r5, #0
 1153 0284 00F00A82 		beq	.L150
 1154 0288 0028     		cmp	r0, #0
 1155 028a 00F00982 		beq	.L151
 1156 028e 2046     		mov	r0, r4
 1157 0290 FFF7FEFF 		bl	strlen
 1158 0294 0746     		mov	r7, r0
 1159 0296 2846     		mov	r0, r5
 1160 0298 FFF7FEFF 		bl	strlen
 1161 029c 0546     		mov	r5, r0
 1162 029e 3046     		mov	r0, r6
 1163 02a0 FFF7FEFF 		bl	strlen
 1164 02a4 0646     		mov	r6, r0
 1165 02a6 3946     		mov	r1, r7
 1166 02a8 2046     		mov	r0, r4
 1167 02aa FFF7FEFF 		bl	checkHexFormat
 1168 02ae 08B1     		cbz	r0, .L188
 1169 02b0 0624     		movs	r4, #6
ARM GAS  C:\Users\A4F7~1\AppData\Local\Temp\ccfwrfN0.s 			page 21


 1170 02b2 E3E1     		b	.L108
 1171              	.L188:
 1172 02b4 2946     		mov	r1, r5
 1173 02b6 044B     		ldr	r3, .L205+4
 1174 02b8 D868     		ldr	r0, [r3, #12]
 1175 02ba FFF7FEFF 		bl	checkHexFormat
 1176 02be 08B3     		cbz	r0, .L189
 1177 02c0 0624     		movs	r4, #6
 1178 02c2 DBE1     		b	.L108
 1179              	.L206:
 1180              		.align	2
 1181              	.L205:
 1182 02c4 00000000 		.word	.LC37
 1183 02c8 00000000 		.word	UART_Message
 1184 02cc 04000000 		.word	.LC38
 1185 02d0 08000000 		.word	.LC39
 1186 02d4 14000000 		.word	.LC42
 1187 02d8 18000000 		.word	.LC43
 1188 02dc 1C000000 		.word	.LC44
 1189 02e0 20000000 		.word	.LC45
 1190 02e4 30000000 		.word	.LC49
 1191 02e8 38000000 		.word	.LC50
 1192 02ec 40000000 		.word	.LC51
 1193 02f0 0C000000 		.word	.LC40
 1194 02f4 10000000 		.word	.LC41
 1195 02f8 00000000 		.word	DeviceConfiguration
 1196 02fc 00000000 		.word	.LANCHOR0
 1197 0300 24000000 		.word	.LC46
 1198              	.L189:
 1199 0304 3146     		mov	r1, r6
 1200 0306 A14B     		ldr	r3, .L207
 1201 0308 9869     		ldr	r0, [r3, #24]
 1202 030a FFF7FEFF 		bl	checkHexFormat
 1203 030e 08B1     		cbz	r0, .L190
 1204 0310 0624     		movs	r4, #6
 1205 0312 B3E1     		b	.L108
 1206              	.L190:
 1207 0314 9D4C     		ldr	r4, .L207
 1208 0316 1022     		movs	r2, #16
 1209 0318 0021     		movs	r1, #0
 1210 031a A068     		ldr	r0, [r4, #8]
 1211 031c FFF7FEFF 		bl	strtol
 1212 0320 0546     		mov	r5, r0
 1213 0322 1022     		movs	r2, #16
 1214 0324 0021     		movs	r1, #0
 1215 0326 E068     		ldr	r0, [r4, #12]
 1216 0328 FFF7FEFF 		bl	strtol
 1217 032c 0146     		mov	r1, r0
 1218 032e 2846     		mov	r0, r5
 1219 0330 FFF7FEFF 		bl	checkRange
 1220 0334 08B1     		cbz	r0, .L191
 1221 0336 0224     		movs	r4, #2
 1222 0338 A0E1     		b	.L108
 1223              	.L191:
 1224 033a 1022     		movs	r2, #16
 1225 033c 0021     		movs	r1, #0
 1226 033e E068     		ldr	r0, [r4, #12]
ARM GAS  C:\Users\A4F7~1\AppData\Local\Temp\ccfwrfN0.s 			page 22


 1227 0340 FFF7FEFF 		bl	strtol
 1228 0344 6FF07F41 		mvn	r1, #-16777216
 1229 0348 FFF7FEFF 		bl	checkRange
 1230 034c 0446     		mov	r4, r0
 1231 034e 0028     		cmp	r0, #0
 1232 0350 40F0A881 		bne	.L156
 1233 0354 8E4B     		ldr	r3, .L207+4
 1234 0356 1A88     		ldrh	r2, [r3]
 1235 0358 4FF6FF73 		movw	r3, #65535
 1236 035c 9A42     		cmp	r2, r3
 1237 035e 23D0     		beq	.L192
 1238              	.L121:
 1239 0360 8C4D     		ldr	r5, .L207+8
 1240 0362 0523     		movs	r3, #5
 1241 0364 2B70     		strb	r3, [r5]
 1242 0366 0026     		movs	r6, #0
 1243 0368 6E60     		str	r6, [r5, #4]
 1244 036a AE82     		strh	r6, [r5, #20]	@ movhi
 1245 036c 874F     		ldr	r7, .L207
 1246 036e 1022     		movs	r2, #16
 1247 0370 3146     		mov	r1, r6
 1248 0372 B868     		ldr	r0, [r7, #8]
 1249 0374 FFF7FEFF 		bl	strtol
 1250 0378 A860     		str	r0, [r5, #8]
 1251 037a 1022     		movs	r2, #16
 1252 037c 3146     		mov	r1, r6
 1253 037e F868     		ldr	r0, [r7, #12]
 1254 0380 FFF7FEFF 		bl	strtol
 1255 0384 E860     		str	r0, [r5, #12]
 1256 0386 2E61     		str	r6, [r5, #16]
 1257 0388 1022     		movs	r2, #16
 1258 038a 3146     		mov	r1, r6
 1259 038c B869     		ldr	r0, [r7, #24]
 1260 038e FFF7FEFF 		bl	strtol
 1261 0392 E882     		strh	r0, [r5, #22]	@ movhi
 1262 0394 3A68     		ldr	r2, [r7]
 1263 0396 804B     		ldr	r3, .L207+12
 1264 0398 9A42     		cmp	r2, r3
 1265 039a 07BF     		ittee	eq
 1266 039c 2B46     		moveq	r3, r5
 1267 039e 0122     		moveq	r2, #1
 1268 03a0 7C4B     		ldrne	r3, .L207+8
 1269 03a2 0222     		movne	r2, #2
 1270 03a4 5A70     		strb	r2, [r3, #1]
 1271 03a6 69E1     		b	.L108
 1272              	.L192:
 1273 03a8 1022     		movs	r2, #16
 1274 03aa 0021     		movs	r1, #0
 1275 03ac 774B     		ldr	r3, .L207
 1276 03ae 9868     		ldr	r0, [r3, #8]
 1277 03b0 FFF7FEFF 		bl	strtol
 1278 03b4 FFF7FEFF 		bl	checkParity
 1279 03b8 08B1     		cbz	r0, .L193
 1280 03ba 0324     		movs	r4, #3
 1281 03bc 5EE1     		b	.L108
 1282              	.L193:
 1283 03be 1022     		movs	r2, #16
ARM GAS  C:\Users\A4F7~1\AppData\Local\Temp\ccfwrfN0.s 			page 23


 1284 03c0 0021     		movs	r1, #0
 1285 03c2 724B     		ldr	r3, .L207
 1286 03c4 D868     		ldr	r0, [r3, #12]
 1287 03c6 FFF7FEFF 		bl	strtol
 1288 03ca FFF7FEFF 		bl	checkParity
 1289 03ce 0028     		cmp	r0, #0
 1290 03d0 C6D0     		beq	.L121
 1291 03d2 0324     		movs	r4, #3
 1292 03d4 52E1     		b	.L108
 1293              	.L119:
 1294 03d6 2A46     		mov	r2, r5
 1295 03d8 7049     		ldr	r1, .L207+16
 1296 03da 2046     		mov	r0, r4
 1297 03dc FFF7FEFF 		bl	strncmp
 1298 03e0 0646     		mov	r6, r0
 1299 03e2 2A46     		mov	r2, r5
 1300 03e4 6E49     		ldr	r1, .L207+20
 1301 03e6 2046     		mov	r0, r4
 1302 03e8 FFF7FEFF 		bl	strncmp
 1303 03ec 16B1     		cbz	r6, .L175
 1304 03ee 0028     		cmp	r0, #0
 1305 03f0 7FF443AE 		bne	.L120
 1306              	.L175:
 1307 03f4 032D     		cmp	r5, #3
 1308 03f6 7FF440AE 		bne	.L120
 1309 03fa 6A49     		ldr	r1, .L207+24
 1310 03fc 0020     		movs	r0, #0
 1311 03fe FFF7FEFF 		bl	strtok
 1312 0402 0446     		mov	r4, r0
 1313 0404 6849     		ldr	r1, .L207+28
 1314 0406 0020     		movs	r0, #0
 1315 0408 FFF7FEFF 		bl	strtok
 1316 040c 0546     		mov	r5, r0
 1317 040e 5F4B     		ldr	r3, .L207
 1318 0410 9C60     		str	r4, [r3, #8]
 1319 0412 D860     		str	r0, [r3, #12]
 1320 0414 002C     		cmp	r4, #0
 1321 0416 00F04781 		beq	.L159
 1322 041a 0028     		cmp	r0, #0
 1323 041c 00F04681 		beq	.L160
 1324 0420 2046     		mov	r0, r4
 1325 0422 FFF7FEFF 		bl	strlen
 1326 0426 0646     		mov	r6, r0
 1327 0428 2846     		mov	r0, r5
 1328 042a FFF7FEFF 		bl	strlen
 1329 042e 0546     		mov	r5, r0
 1330 0430 3146     		mov	r1, r6
 1331 0432 2046     		mov	r0, r4
 1332 0434 FFF7FEFF 		bl	checkHexFormat
 1333 0438 08B1     		cbz	r0, .L194
 1334 043a 0424     		movs	r4, #4
 1335 043c 1EE1     		b	.L108
 1336              	.L194:
 1337 043e 2946     		mov	r1, r5
 1338 0440 524B     		ldr	r3, .L207
 1339 0442 D868     		ldr	r0, [r3, #12]
 1340 0444 FFF7FEFF 		bl	checkHexFormat
ARM GAS  C:\Users\A4F7~1\AppData\Local\Temp\ccfwrfN0.s 			page 24


 1341 0448 08B1     		cbz	r0, .L195
 1342 044a 0424     		movs	r4, #4
 1343 044c 16E1     		b	.L108
 1344              	.L195:
 1345 044e 4F4C     		ldr	r4, .L207
 1346 0450 1022     		movs	r2, #16
 1347 0452 0021     		movs	r1, #0
 1348 0454 A068     		ldr	r0, [r4, #8]
 1349 0456 FFF7FEFF 		bl	strtol
 1350 045a 0546     		mov	r5, r0
 1351 045c 1022     		movs	r2, #16
 1352 045e 0021     		movs	r1, #0
 1353 0460 E068     		ldr	r0, [r4, #12]
 1354 0462 FFF7FEFF 		bl	strtol
 1355 0466 0146     		mov	r1, r0
 1356 0468 2846     		mov	r0, r5
 1357 046a FFF7FEFF 		bl	checkRange
 1358 046e 08B1     		cbz	r0, .L196
 1359 0470 0224     		movs	r4, #2
 1360 0472 03E1     		b	.L108
 1361              	.L196:
 1362 0474 1022     		movs	r2, #16
 1363 0476 0021     		movs	r1, #0
 1364 0478 E068     		ldr	r0, [r4, #12]
 1365 047a FFF7FEFF 		bl	strtol
 1366 047e 6FF07F41 		mvn	r1, #-16777216
 1367 0482 FFF7FEFF 		bl	checkRange
 1368 0486 0446     		mov	r4, r0
 1369 0488 0028     		cmp	r0, #0
 1370 048a 40F01181 		bne	.L164
 1371 048e 404B     		ldr	r3, .L207+4
 1372 0490 1A88     		ldrh	r2, [r3]
 1373 0492 4FF6FF73 		movw	r3, #65535
 1374 0496 9A42     		cmp	r2, r3
 1375 0498 27D0     		beq	.L197
 1376              	.L124:
 1377 049a 3C4B     		ldr	r3, .L207
 1378 049c 1B68     		ldr	r3, [r3]
 1379 049e 3F4A     		ldr	r2, .L207+16
 1380 04a0 9342     		cmp	r3, r2
 1381 04a2 0CBF     		ite	eq
 1382 04a4 0323     		moveq	r3, #3
 1383 04a6 0423     		movne	r3, #4
 1384 04a8 3A4D     		ldr	r5, .L207+8
 1385 04aa 2B70     		strb	r3, [r5]
 1386 04ac 374E     		ldr	r6, .L207
 1387 04ae 1022     		movs	r2, #16
 1388 04b0 0021     		movs	r1, #0
 1389 04b2 B068     		ldr	r0, [r6, #8]
 1390 04b4 FFF7FEFF 		bl	strtol
 1391 04b8 A860     		str	r0, [r5, #8]
 1392 04ba 1022     		movs	r2, #16
 1393 04bc 0021     		movs	r1, #0
 1394 04be F068     		ldr	r0, [r6, #12]
 1395 04c0 FFF7FEFF 		bl	strtol
 1396 04c4 E860     		str	r0, [r5, #12]
 1397 04c6 AA68     		ldr	r2, [r5, #8]
ARM GAS  C:\Users\A4F7~1\AppData\Local\Temp\ccfwrfN0.s 			page 25


 1398 04c8 6A60     		str	r2, [r5, #4]
 1399 04ca 0023     		movs	r3, #0
 1400 04cc 6B70     		strb	r3, [r5, #1]
 1401 04ce 304B     		ldr	r3, .L207+4
 1402 04d0 1988     		ldrh	r1, [r3]
 1403 04d2 4FF6FF73 		movw	r3, #65535
 1404 04d6 9942     		cmp	r1, r3
 1405 04d8 1ED0     		beq	.L198
 1406 04da 2E4B     		ldr	r3, .L207+8
 1407 04dc BD21     		movs	r1, #189
 1408 04de 9982     		strh	r1, [r3, #20]	@ movhi
 1409 04e0 0121     		movs	r1, #1
 1410 04e2 1961     		str	r1, [r3, #16]
 1411 04e4 801A     		subs	r0, r0, r2
 1412 04e6 D882     		strh	r0, [r3, #22]	@ movhi
 1413 04e8 C8E0     		b	.L108
 1414              	.L197:
 1415 04ea 1022     		movs	r2, #16
 1416 04ec 0021     		movs	r1, #0
 1417 04ee 274B     		ldr	r3, .L207
 1418 04f0 9868     		ldr	r0, [r3, #8]
 1419 04f2 FFF7FEFF 		bl	strtol
 1420 04f6 FFF7FEFF 		bl	checkParity
 1421 04fa 08B1     		cbz	r0, .L199
 1422 04fc 0324     		movs	r4, #3
 1423 04fe BDE0     		b	.L108
 1424              	.L199:
 1425 0500 1022     		movs	r2, #16
 1426 0502 0021     		movs	r1, #0
 1427 0504 214B     		ldr	r3, .L207
 1428 0506 D868     		ldr	r0, [r3, #12]
 1429 0508 FFF7FEFF 		bl	strtol
 1430 050c FFF7FEFF 		bl	checkParity
 1431 0510 0028     		cmp	r0, #0
 1432 0512 C2D0     		beq	.L124
 1433 0514 0324     		movs	r4, #3
 1434 0516 B1E0     		b	.L108
 1435              	.L198:
 1436 0518 4BF6BD53 		movw	r3, #48573
 1437 051c AB82     		strh	r3, [r5, #20]	@ movhi
 1438 051e 0223     		movs	r3, #2
 1439 0520 2B61     		str	r3, [r5, #16]
 1440 0522 831A     		subs	r3, r0, r2
 1441 0524 5B08     		lsrs	r3, r3, #1
 1442 0526 EB82     		strh	r3, [r5, #22]	@ movhi
 1443 0528 A8E0     		b	.L108
 1444              	.L181:
 1445 052a 1F49     		ldr	r1, .L207+28
 1446 052c FFF7FEFF 		bl	strtok
 1447 0530 164B     		ldr	r3, .L207
 1448 0532 9861     		str	r0, [r3, #24]
 1449 0534 0028     		cmp	r0, #0
 1450 0536 00F0BD80 		beq	.L168
 1451 053a 1022     		movs	r2, #16
 1452 053c 0021     		movs	r1, #0
 1453 053e FFF7FEFF 		bl	strtol
 1454 0542 4FF0FF31 		mov	r1, #-1
ARM GAS  C:\Users\A4F7~1\AppData\Local\Temp\ccfwrfN0.s 			page 26


 1455 0546 FFF7FEFF 		bl	checkRange
 1456 054a 0446     		mov	r4, r0
 1457 054c 0028     		cmp	r0, #0
 1458 054e 40F0B380 		bne	.L169
 1459 0552 164B     		ldr	r3, .L207+32
 1460 0554 1A78     		ldrb	r2, [r3]	@ zero_extendqisi2
 1461 0556 531E     		subs	r3, r2, #1
 1462 0558 DBB2     		uxtb	r3, r3
 1463 055a 012B     		cmp	r3, #1
 1464 055c 01D9     		bls	.L200
 1465 055e 0724     		movs	r4, #7
 1466 0560 8CE0     		b	.L108
 1467              	.L200:
 1468 0562 0C4D     		ldr	r5, .L207+8
 1469 0564 2A70     		strb	r2, [r5]
 1470 0566 114B     		ldr	r3, .L207+32
 1471 0568 5A68     		ldr	r2, [r3, #4]
 1472 056a 6A60     		str	r2, [r5, #4]
 1473 056c 9A8A     		ldrh	r2, [r3, #20]
 1474 056e AA82     		strh	r2, [r5, #20]	@ movhi
 1475 0570 9A68     		ldr	r2, [r3, #8]
 1476 0572 AA60     		str	r2, [r5, #8]
 1477 0574 DA68     		ldr	r2, [r3, #12]
 1478 0576 EA60     		str	r2, [r5, #12]
 1479 0578 1B69     		ldr	r3, [r3, #16]
 1480 057a 2B61     		str	r3, [r5, #16]
 1481 057c 1022     		movs	r2, #16
 1482 057e 0021     		movs	r1, #0
 1483 0580 024B     		ldr	r3, .L207
 1484 0582 9869     		ldr	r0, [r3, #24]
 1485 0584 FFF7FEFF 		bl	strtol
 1486 0588 E882     		strh	r0, [r5, #22]	@ movhi
 1487 058a 77E0     		b	.L108
 1488              	.L208:
 1489              		.align	2
 1490              	.L207:
 1491 058c 00000000 		.word	UART_Message
 1492 0590 00000000 		.word	DeviceConfiguration
 1493 0594 00000000 		.word	.LANCHOR0
 1494 0598 1C000000 		.word	.LC44
 1495 059c 28000000 		.word	.LC47
 1496 05a0 2C000000 		.word	.LC48
 1497 05a4 24000000 		.word	.LC46
 1498 05a8 10000000 		.word	.LC41
 1499 05ac 00000000 		.word	.LANCHOR1
 1500              	.L127:
 1501 05b0 2A46     		mov	r2, r5
 1502 05b2 4549     		ldr	r1, .L209
 1503 05b4 2046     		mov	r0, r4
 1504 05b6 FFF7FEFF 		bl	strncmp
 1505 05ba 0028     		cmp	r0, #0
 1506 05bc 7FF470AD 		bne	.L129
 1507 05c0 042D     		cmp	r5, #4
 1508 05c2 21D0     		beq	.L201
 1509              	.L130:
 1510 05c4 2A46     		mov	r2, r5
 1511 05c6 4149     		ldr	r1, .L209+4
ARM GAS  C:\Users\A4F7~1\AppData\Local\Temp\ccfwrfN0.s 			page 27


 1512 05c8 2046     		mov	r0, r4
 1513 05ca FFF7FEFF 		bl	strncmp
 1514 05ce 08B9     		cbnz	r0, .L131
 1515 05d0 072D     		cmp	r5, #7
 1516 05d2 1DD0     		beq	.L202
 1517              	.L131:
 1518 05d4 2A46     		mov	r2, r5
 1519 05d6 3E49     		ldr	r1, .L209+8
 1520 05d8 2046     		mov	r0, r4
 1521 05da FFF7FEFF 		bl	strncmp
 1522 05de 18BB     		cbnz	r0, .L132
 1523 05e0 022D     		cmp	r5, #2
 1524 05e2 19D0     		beq	.L203
 1525              	.L133:
 1526 05e4 2A46     		mov	r2, r5
 1527 05e6 3B49     		ldr	r1, .L209+12
 1528 05e8 2046     		mov	r0, r4
 1529 05ea FFF7FEFF 		bl	strncmp
 1530 05ee 0028     		cmp	r0, #0
 1531 05f0 68D0     		beq	.L174
 1532              	.L135:
 1533 05f2 2A46     		mov	r2, r5
 1534 05f4 3849     		ldr	r1, .L209+16
 1535 05f6 2046     		mov	r0, r4
 1536 05f8 FFF7FEFF 		bl	strncmp
 1537 05fc 0028     		cmp	r0, #0
 1538 05fe 5FD1     		bne	.L172
 1539 0600 022D     		cmp	r5, #2
 1540 0602 32D0     		beq	.L204
 1541 0604 0A24     		movs	r4, #10
 1542 0606 39E0     		b	.L108
 1543              	.L201:
 1544 0608 FFF7FEFF 		bl	SaveCommand
 1545 060c 0024     		movs	r4, #0
 1546 060e 35E0     		b	.L108
 1547              	.L202:
 1548 0610 FFF7FEFF 		bl	DefaultCommand
 1549 0614 0024     		movs	r4, #0
 1550 0616 31E0     		b	.L108
 1551              	.L203:
 1552 0618 304B     		ldr	r3, .L209+20
 1553 061a FF22     		movs	r2, #255
 1554 061c 1A80     		strh	r2, [r3]	@ movhi
 1555 061e 3048     		ldr	r0, .L209+24
 1556 0620 FFF7FEFF 		bl	SendMessage
 1557 0624 0024     		movs	r4, #0
 1558 0626 29E0     		b	.L108
 1559              	.L132:
 1560 0628 2A46     		mov	r2, r5
 1561 062a 2E49     		ldr	r1, .L209+28
 1562 062c 2046     		mov	r0, r4
 1563 062e FFF7FEFF 		bl	strncmp
 1564 0632 50B9     		cbnz	r0, .L134
 1565 0634 022D     		cmp	r5, #2
 1566 0636 D5D1     		bne	.L133
 1567 0638 284B     		ldr	r3, .L209+20
 1568 063a 4FF6FF72 		movw	r2, #65535
ARM GAS  C:\Users\A4F7~1\AppData\Local\Temp\ccfwrfN0.s 			page 28


 1569 063e 1A80     		strh	r2, [r3]	@ movhi
 1570 0640 2948     		ldr	r0, .L209+32
 1571 0642 FFF7FEFF 		bl	SendMessage
 1572 0646 0024     		movs	r4, #0
 1573 0648 18E0     		b	.L108
 1574              	.L134:
 1575 064a 2A46     		mov	r2, r5
 1576 064c 2149     		ldr	r1, .L209+12
 1577 064e 2046     		mov	r0, r4
 1578 0650 FFF7FEFF 		bl	strncmp
 1579 0654 0028     		cmp	r0, #0
 1580 0656 CCD1     		bne	.L135
 1581 0658 022D     		cmp	r5, #2
 1582 065a 2FD1     		bne	.L171
 1583 065c 0024     		movs	r4, #0
 1584 065e 1F4B     		ldr	r3, .L209+20
 1585 0660 9C70     		strb	r4, [r3, #2]
 1586 0662 2248     		ldr	r0, .L209+36
 1587 0664 FFF7FEFF 		bl	SendMessage
 1588 0668 08E0     		b	.L108
 1589              	.L204:
 1590 066a 1C4B     		ldr	r3, .L209+20
 1591 066c 0122     		movs	r2, #1
 1592 066e 9A70     		strb	r2, [r3, #2]
 1593 0670 1F48     		ldr	r0, .L209+40
 1594 0672 FFF7FEFF 		bl	SendMessage
 1595 0676 0024     		movs	r4, #0
 1596 0678 00E0     		b	.L108
 1597              	.L137:
 1598 067a 0924     		movs	r4, #9
 1599              	.L108:
 1600 067c 2046     		mov	r0, r4
 1601 067e FFF7FEFF 		bl	errorType
 1602 0682 F8BD     		pop	{r3, r4, r5, r6, r7, pc}
 1603              	.L138:
 1604 0684 0924     		movs	r4, #9
 1605 0686 F9E7     		b	.L108
 1606              	.L139:
 1607 0688 0924     		movs	r4, #9
 1608 068a F7E7     		b	.L108
 1609              	.L143:
 1610 068c 0124     		movs	r4, #1
 1611 068e F5E7     		b	.L108
 1612              	.L145:
 1613 0690 0924     		movs	r4, #9
 1614 0692 F3E7     		b	.L108
 1615              	.L147:
 1616 0694 0224     		movs	r4, #2
 1617 0696 F1E7     		b	.L108
 1618              	.L149:
 1619 0698 0924     		movs	r4, #9
 1620 069a EFE7     		b	.L108
 1621              	.L150:
 1622 069c 0924     		movs	r4, #9
 1623 069e EDE7     		b	.L108
 1624              	.L151:
 1625 06a0 0924     		movs	r4, #9
ARM GAS  C:\Users\A4F7~1\AppData\Local\Temp\ccfwrfN0.s 			page 29


 1626 06a2 EBE7     		b	.L108
 1627              	.L156:
 1628 06a4 0224     		movs	r4, #2
 1629 06a6 E9E7     		b	.L108
 1630              	.L159:
 1631 06a8 0924     		movs	r4, #9
 1632 06aa E7E7     		b	.L108
 1633              	.L160:
 1634 06ac 0924     		movs	r4, #9
 1635 06ae E5E7     		b	.L108
 1636              	.L164:
 1637 06b0 0224     		movs	r4, #2
 1638 06b2 E3E7     		b	.L108
 1639              	.L168:
 1640 06b4 0724     		movs	r4, #7
 1641 06b6 E1E7     		b	.L108
 1642              	.L169:
 1643 06b8 0824     		movs	r4, #8
 1644 06ba DFE7     		b	.L108
 1645              	.L171:
 1646 06bc 0A24     		movs	r4, #10
 1647 06be DDE7     		b	.L108
 1648              	.L172:
 1649 06c0 0A24     		movs	r4, #10
 1650 06c2 DBE7     		b	.L108
 1651              	.L174:
 1652 06c4 0A24     		movs	r4, #10
 1653 06c6 D9E7     		b	.L108
 1654              	.L210:
 1655              		.align	2
 1656              	.L209:
 1657 06c8 38000000 		.word	.LC50
 1658 06cc 48000000 		.word	.LC52
 1659 06d0 50000000 		.word	.LC53
 1660 06d4 58000000 		.word	.LC55
 1661 06d8 5C000000 		.word	.LC56
 1662 06dc 00000000 		.word	DeviceConfiguration
 1663 06e0 00000000 		.word	.LC32
 1664 06e4 54000000 		.word	.LC54
 1665 06e8 0C000000 		.word	.LC33
 1666 06ec 18000000 		.word	.LC34
 1667 06f0 28000000 		.word	.LC35
 1669              		.section	.text.RecieveMessage,"ax",%progbits
 1670              		.align	1
 1671              		.global	RecieveMessage
 1672              		.syntax unified
 1673              		.thumb
 1674              		.thumb_func
 1675              		.fpu softvfp
 1677              	RecieveMessage:
 1678              		@ args = 0, pretend = 0, frame = 0
 1679              		@ frame_needed = 0, uses_anonymous_args = 0
 1680 0000 38B5     		push	{r3, r4, r5, lr}
 1681 0002 144B     		ldr	r3, .L219
 1682 0004 C35C     		ldrb	r3, [r0, r3]	@ zero_extendqisi2
 1683 0006 03F00303 		and	r3, r3, #3
 1684 000a 022B     		cmp	r3, #2
ARM GAS  C:\Users\A4F7~1\AppData\Local\Temp\ccfwrfN0.s 			page 30


 1685 000c 08BF     		it	eq
 1686 000e 2038     		subeq	r0, r0, #32
 1687 0010 114B     		ldr	r3, .L219+4
 1688 0012 1B68     		ldr	r3, [r3]
 1689 0014 262B     		cmp	r3, #38
 1690 0016 16D8     		bhi	.L214
 1691 0018 C0B2     		uxtb	r0, r0
 1692 001a 0D28     		cmp	r0, #13
 1693 001c 05D0     		beq	.L218
 1694 001e 591C     		adds	r1, r3, #1
 1695 0020 0D4A     		ldr	r2, .L219+4
 1696 0022 1160     		str	r1, [r2]
 1697 0024 0D4A     		ldr	r2, .L219+8
 1698 0026 D054     		strb	r0, [r2, r3]
 1699              	.L211:
 1700 0028 38BD     		pop	{r3, r4, r5, pc}
 1701              	.L218:
 1702 002a 0D48     		ldr	r0, .L219+12
 1703 002c FFF7FEFF 		bl	SendMessage
 1704 0030 094C     		ldr	r4, .L219+4
 1705 0032 2368     		ldr	r3, [r4]
 1706 0034 5A1C     		adds	r2, r3, #1
 1707 0036 2260     		str	r2, [r4]
 1708 0038 0848     		ldr	r0, .L219+8
 1709 003a 0025     		movs	r5, #0
 1710 003c C554     		strb	r5, [r0, r3]
 1711 003e FFF7FEFF 		bl	parseUARTMessage
 1712 0042 2560     		str	r5, [r4]
 1713 0044 F0E7     		b	.L211
 1714              	.L214:
 1715 0046 0748     		ldr	r0, .L219+16
 1716 0048 FFF7FEFF 		bl	SendMessage
 1717 004c 024B     		ldr	r3, .L219+4
 1718 004e 0022     		movs	r2, #0
 1719 0050 1A60     		str	r2, [r3]
 1720 0052 E9E7     		b	.L211
 1721              	.L220:
 1722              		.align	2
 1723              	.L219:
 1724 0054 01000000 		.word	_ctype_+1
 1725 0058 00000000 		.word	.LANCHOR3
 1726 005c 00000000 		.word	recieved
 1727 0060 00000000 		.word	.LC57
 1728 0064 04000000 		.word	.LC58
 1730              		.section	.text.USART1_IRQHandler,"ax",%progbits
 1731              		.align	1
 1732              		.global	USART1_IRQHandler
 1733              		.syntax unified
 1734              		.thumb
 1735              		.thumb_func
 1736              		.fpu softvfp
 1738              	USART1_IRQHandler:
 1739              		@ args = 0, pretend = 0, frame = 0
 1740              		@ frame_needed = 0, uses_anonymous_args = 0
 1741 0000 08B5     		push	{r3, lr}
 1742 0002 074B     		ldr	r3, .L225
 1743 0004 1B88     		ldrh	r3, [r3]
ARM GAS  C:\Users\A4F7~1\AppData\Local\Temp\ccfwrfN0.s 			page 31


 1744 0006 13F0200F 		tst	r3, #32
 1745 000a 05D0     		beq	.L222
 1746 000c 044B     		ldr	r3, .L225
 1747 000e 9888     		ldrh	r0, [r3, #4]
 1748 0010 C0B2     		uxtb	r0, r0
 1749 0012 FFF7FEFF 		bl	RecieveMessage
 1750              	.L221:
 1751 0016 08BD     		pop	{r3, pc}
 1752              	.L222:
 1753 0018 0248     		ldr	r0, .L225+4
 1754 001a FFF7FEFF 		bl	SendMessage
 1755 001e FAE7     		b	.L221
 1756              	.L226:
 1757              		.align	2
 1758              	.L225:
 1759 0020 00380140 		.word	1073821696
 1760 0024 00000000 		.word	.LC59
 1762              		.section	.text.main,"ax",%progbits
 1763              		.align	1
 1764              		.global	main
 1765              		.syntax unified
 1766              		.thumb
 1767              		.thumb_func
 1768              		.fpu softvfp
 1770              	main:
 1771              		@ Volatile: function does not return.
 1772              		@ args = 0, pretend = 0, frame = 0
 1773              		@ frame_needed = 0, uses_anonymous_args = 0
 1774 0000 08B5     		push	{r3, lr}
 1775 0002 FFF7FEFF 		bl	IO_Init
 1776 0006 FFF7FEFF 		bl	initUSART1_19200
 1777 000a FFF7FEFF 		bl	initIRQHandler
 1778 000e FFF7FEFF 		bl	initTIM1_msTimer
 1779 0012 FFF7FEFF 		bl	initTIM3CH2_externalCounter
 1780 0016 FFF7FEFF 		bl	initDeviceConfig
 1781 001a 0348     		ldr	r0, .L230
 1782 001c FFF7FEFF 		bl	SendMessage
 1783              	.L228:
 1784 0020 FFF7FEFF 		bl	taskExecCommand
 1785 0024 FCE7     		b	.L228
 1786              	.L231:
 1787 0026 00BF     		.align	2
 1788              	.L230:
 1789 0028 00000000 		.word	.LC60
 1791              		.global	rec_len
 1792              		.comm	recieved,40,4
 1793              		.comm	DeviceConfiguration,4,4
 1794              		.comm	FlashControl,8,4
 1795              		.global	LastCommand
 1796              		.global	CurrentCommand
 1797              		.comm	UART_Message,28,4
 1798              		.section	.rodata
 1799              		.align	2
 1800              		.set	.LANCHOR2,. + 0
 1801              	.LC14:
 1802 0000 57726974 		.ascii	"Writed=0x\000"
 1802      65643D30 
ARM GAS  C:\Users\A4F7~1\AppData\Local\Temp\ccfwrfN0.s 			page 32


 1802      7800
 1803 000a 00       		.space	1
 1804 000b 00       		.space	1
 1805              	.LC15:
 1806 000c 52656164 		.ascii	"Readed=0x\000"
 1806      65643D30 
 1806      7800
 1807 0016 00       		.space	1
 1808              		.section	.bss.CurrentCommand,"aw",%nobits
 1809              		.align	2
 1810              		.set	.LANCHOR0,. + 0
 1813              	CurrentCommand:
 1814 0000 00000000 		.space	24
 1814      00000000 
 1814      00000000 
 1814      00000000 
 1814      00000000 
 1815              		.section	.bss.LastCommand,"aw",%nobits
 1816              		.align	2
 1817              		.set	.LANCHOR1,. + 0
 1820              	LastCommand:
 1821 0000 00000000 		.space	24
 1821      00000000 
 1821      00000000 
 1821      00000000 
 1821      00000000 
 1822              		.section	.bss.rec_len,"aw",%nobits
 1823              		.align	2
 1824              		.set	.LANCHOR3,. + 0
 1827              	rec_len:
 1828 0000 00000000 		.space	4
 1829              		.section	.rodata.DefaultCommand.str1.4,"aMS",%progbits,1
 1830              		.align	2
 1831              	.LC0:
 1832 0000 4C6F6164 		.ascii	"Loaded default device configuration: 16 bit, sync o"
 1832      65642064 
 1832      65666175 
 1832      6C742064 
 1832      65766963 
 1833 0033 6E206164 		.ascii	"n address\000"
 1833      64726573 
 1833      7300
 1834              		.section	.rodata.HelpCommand.str1.4,"aMS",%progbits,1
 1835              		.align	2
 1836              	.LC1:
 1837 0000 3C2D2D2D 		.ascii	"<---------------HELP--------------->\000"
 1837      2D2D2D2D 
 1837      2D2D2D2D 
 1837      2D2D2D2D 
 1837      48454C50 
 1838 0025 000000   		.space	3
 1839              	.LC2:
 1840 0028 57524D2C 		.ascii	"WRM, WRP - write command\000"
 1840      20575250 
 1840      202D2077 
 1840      72697465 
 1840      20636F6D 
ARM GAS  C:\Users\A4F7~1\AppData\Local\Temp\ccfwrfN0.s 			page 33


 1841 0041 000000   		.space	3
 1842              	.LC3:
 1843 0044 52444D2C 		.ascii	"RDM, RDP - read command\000"
 1843      20524450 
 1843      202D2072 
 1843      65616420 
 1843      636F6D6D 
 1844              	.LC4:
 1845 005c 2000     		.ascii	" \000"
 1846 005e 0000     		.space	2
 1847              	.LC5:
 1848 0060 666F726D 		.ascii	"format command@address=data\000"
 1848      61742063 
 1848      6F6D6D61 
 1848      6E644061 
 1848      64647265 
 1849              	.LC6:
 1850 007c 53415645 		.ascii	"SAVE - command that save current device configurati"
 1850      202D2063 
 1850      6F6D6D61 
 1850      6E642074 
 1850      68617420 
 1851 00af 6F6E00   		.ascii	"on\000"
 1852 00b2 0000     		.space	2
 1853              	.LC7:
 1854 00b4 3C2D2D2D 		.ascii	"<-------------END-HELP------------->\000"
 1854      2D2D2D2D 
 1854      2D2D2D2D 
 1854      2D2D454E 
 1854      442D4845 
 1855              		.section	.rodata.RecieveMessage.str1.4,"aMS",%progbits,1
 1856              		.align	2
 1857              	.LC57:
 1858 0000 3E00     		.ascii	">\000"
 1859 0002 0000     		.space	2
 1860              	.LC58:
 1861 0004 546F6F20 		.ascii	"Too long command\000"
 1861      6C6F6E67 
 1861      20636F6D 
 1861      6D616E64 
 1861      00
 1862              		.section	.rodata.SaveCommand.str1.4,"aMS",%progbits,1
 1863              		.align	2
 1864              	.LC31:
 1865 0000 43757272 		.ascii	"Current configuration saved\000"
 1865      656E7420 
 1865      636F6E66 
 1865      69677572 
 1865      6174696F 
 1866              		.section	.rodata.USART1_IRQHandler.str1.4,"aMS",%progbits,1
 1867              		.align	2
 1868              	.LC59:
 1869 0000 45786570 		.ascii	"Exeption #1 - UART\000"
 1869      74696F6E 
 1869      20233120 
 1869      2D205541 
 1869      525400
ARM GAS  C:\Users\A4F7~1\AppData\Local\Temp\ccfwrfN0.s 			page 34


 1870              		.section	.rodata.errorType.str1.4,"aMS",%progbits,1
 1871              		.align	2
 1872              	.LC19:
 1873 0000 20686176 		.ascii	" have no errors\000"
 1873      65206E6F 
 1873      20657272 
 1873      6F727300 
 1874              	.LC20:
 1875 0010 44415441 		.ascii	"DATA out of range\000"
 1875      206F7574 
 1875      206F6620 
 1875      72616E67 
 1875      6500
 1876 0022 0000     		.space	2
 1877              	.LC21:
 1878 0024 41444452 		.ascii	"ADDRESS out of range\000"
 1878      45535320 
 1878      6F757420 
 1878      6F662072 
 1878      616E6765 
 1879 0039 000000   		.space	3
 1880              	.LC22:
 1881 003c 41444452 		.ascii	"ADDRESS is not even number\012Set DATA size 8 bit\012"
 1881      45535320 
 1881      6973206E 
 1881      6F742065 
 1881      76656E20 
 1882 006b 436F6D6D 		.ascii	"Command - SB\000"
 1882      616E6420 
 1882      2D205342 
 1882      00
 1883              	.LC23:
 1884 0078 41444452 		.ascii	"ADDRESS or DATA have no hex format\000"
 1884      45535320 
 1884      6F722044 
 1884      41544120 
 1884      68617665 
 1885 009b 00       		.space	1
 1886              	.LC24:
 1887 009c 53544152 		.ascii	"START ADDRESS more than STOP ADDRESS\000"
 1887      54204144 
 1887      44524553 
 1887      53206D6F 
 1887      72652074 
 1888 00c1 000000   		.space	3
 1889              	.LC25:
 1890 00c4 41444452 		.ascii	"ADDRESS have no hex format\000"
 1890      45535320 
 1890      68617665 
 1890      206E6F20 
 1890      68657820 
 1891 00df 00       		.space	1
 1892              	.LC26:
 1893 00e0 556E6162 		.ascii	"Unable to loop last command\000"
 1893      6C652074 
 1893      6F206C6F 
 1893      6F70206C 
ARM GAS  C:\Users\A4F7~1\AppData\Local\Temp\ccfwrfN0.s 			page 35


 1893      61737420 
 1894              	.LC27:
 1895 00fc 546F6F20 		.ascii	"Too much repeat counter (32bit)\000"
 1895      6D756368 
 1895      20726570 
 1895      65617420 
 1895      636F756E 
 1896              	.LC28:
 1897 011c 596F7520 		.ascii	"You tried calculate lenght from NULL pointer\000"
 1897      74726965 
 1897      64206361 
 1897      6C63756C 
 1897      61746520 
 1898 0149 000000   		.space	3
 1899              	.LC29:
 1900 014c 556E6B6E 		.ascii	"Unknow command\000"
 1900      6F772063 
 1900      6F6D6D61 
 1900      6E6400
 1901 015b 00       		.space	1
 1902              	.LC30:
 1903 015c 556E6B6E 		.ascii	"Unknow type error\000"
 1903      6F772074 
 1903      79706520 
 1903      6572726F 
 1903      7200
 1904              		.section	.rodata.initDeviceConfig.str1.4,"aMS",%progbits,1
 1905              		.align	2
 1906              	.LC32:
 1907 0000 382D6269 		.ascii	"8-bit mode\000"
 1907      74206D6F 
 1907      646500
 1908 000b 00       		.space	1
 1909              	.LC33:
 1910 000c 31362D62 		.ascii	"16-bit mode\000"
 1910      6974206D 
 1910      6F646500 
 1911              	.LC34:
 1912 0018 53796E63 		.ascii	"Sync on DATA\000"
 1912      206F6E20 
 1912      44415441 
 1912      00
 1913 0025 000000   		.space	3
 1914              	.LC35:
 1915 0028 53796E63 		.ascii	"Sync on ADDRESS\000"
 1915      206F6E20 
 1915      41444452 
 1915      45535300 
 1916              	.LC36:
 1917 0038 436F6E66 		.ascii	"Configuration loaded from FLASH\000"
 1917      69677572 
 1917      6174696F 
 1917      6E206C6F 
 1917      61646564 
 1918              		.section	.rodata.main.str1.4,"aMS",%progbits,1
 1919              		.align	2
 1920              	.LC60:
ARM GAS  C:\Users\A4F7~1\AppData\Local\Temp\ccfwrfN0.s 			page 36


 1921 0000 52656164 		.ascii	"Ready\000"
 1921      7900
 1922              		.section	.rodata.parseUARTMessage.str1.4,"aMS",%progbits,1
 1923              		.align	2
 1924              	.LC37:
 1925 0000 4000     		.ascii	"@\000"
 1926 0002 0000     		.space	2
 1927              	.LC38:
 1928 0004 57524D00 		.ascii	"WRM\000"
 1929              	.LC39:
 1930 0008 57525000 		.ascii	"WRP\000"
 1931              	.LC40:
 1932 000c 3D00     		.ascii	"=\000"
 1933 000e 0000     		.space	2
 1934              	.LC41:
 1935 0010 00       		.ascii	"\000"
 1936 0011 000000   		.space	3
 1937              	.LC42:
 1938 0014 52444D00 		.ascii	"RDM\000"
 1939              	.LC43:
 1940 0018 52445000 		.ascii	"RDP\000"
 1941              	.LC44:
 1942 001c 46444D00 		.ascii	"FDM\000"
 1943              	.LC45:
 1944 0020 46445000 		.ascii	"FDP\000"
 1945              	.LC46:
 1946 0024 2D00     		.ascii	"-\000"
 1947 0026 0000     		.space	2
 1948              	.LC47:
 1949 0028 52414D00 		.ascii	"RAM\000"
 1950              	.LC48:
 1951 002c 524F4D00 		.ascii	"ROM\000"
 1952              	.LC49:
 1953 0030 4C4F4F50 		.ascii	"LOOP\000"
 1953      00
 1954 0035 000000   		.space	3
 1955              	.LC50:
 1956 0038 53415645 		.ascii	"SAVE\000"
 1956      00
 1957 003d 000000   		.space	3
 1958              	.LC51:
 1959 0040 48454C50 		.ascii	"HELP\000"
 1959      00
 1960 0045 000000   		.space	3
 1961              	.LC52:
 1962 0048 44454641 		.ascii	"DEFAULT\000"
 1962      554C5400 
 1963              	.LC53:
 1964 0050 534200   		.ascii	"SB\000"
 1965 0053 00       		.space	1
 1966              	.LC54:
 1967 0054 535700   		.ascii	"SW\000"
 1968 0057 00       		.space	1
 1969              	.LC55:
 1970 0058 534400   		.ascii	"SD\000"
 1971 005b 00       		.space	1
 1972              	.LC56:
ARM GAS  C:\Users\A4F7~1\AppData\Local\Temp\ccfwrfN0.s 			page 37


 1973 005c 534100   		.ascii	"SA\000"
 1974              		.section	.rodata.taskExecCommand.str1.4,"aMS",%progbits,1
 1975              		.align	2
 1976              	.LC8:
 1977 0000 3C2D2D2D 		.ascii	"<--------------------------------------------------"
 1977      2D2D2D2D 
 1977      2D2D2D2D 
 1977      2D2D2D2D 
 1977      2D2D2D2D 
 1978 0033 2D2D2D2D 		.ascii	"------\000"
 1978      2D2D00
 1979 003a 0000     		.space	2
 1980              	.LC9:
 1981 003c 255800   		.ascii	"%X\000"
 1982 003f 00       		.space	1
 1983              	.LC10:
 1984 0040 3C2D2D2D 		.ascii	"<-------write complete---\012\012\000"
 1984      2D2D2D2D 
 1984      77726974 
 1984      6520636F 
 1984      6D706C65 
 1985              	.LC11:
 1986 005c 3C2D2D2D 		.ascii	"<-------read complete---\012\012\000"
 1986      2D2D2D2D 
 1986      72656164 
 1986      20636F6D 
 1986      706C6574 
 1987 0077 00       		.space	1
 1988              	.LC12:
 1989 0078 54657374 		.ascii	"Test RAM address:\000"
 1989      2052414D 
 1989      20616464 
 1989      72657373 
 1989      3A00
 1990 008a 0000     		.space	2
 1991              	.LC16:
 1992 008c 4F4B00   		.ascii	"OK\000"
 1993 008f 00       		.space	1
 1994              	.LC17:
 1995 0090 4552524F 		.ascii	"ERROR!!!\000"
 1995      52212121 
 1995      00
 1996 0099 000000   		.space	3
 1997              	.LC18:
 1998 009c 3C2D2D2D 		.ascii	"<--------------------------------------------------"
 1998      2D2D2D2D 
 1998      2D2D2D2D 
 1998      2D2D2D2D 
 1998      2D2D2D2D 
 1999 00cf 2D2D2D2D 		.ascii	"------\012\000"
 1999      2D2D0A00 
 2000 00d7 00       		.space	1
 2001              	.LC13:
 2002 00d8 41646472 		.ascii	"Address=0x\000"
 2002      6573733D 
 2002      307800
 2003              		.ident	"GCC: (GNU MCU Eclipse ARM Embedded GCC, 64-bit) 8.2.1 20181213 (release) [gcc-8-branch rev
ARM GAS  C:\Users\A4F7~1\AppData\Local\Temp\ccfwrfN0.s 			page 38


ARM GAS  C:\Users\A4F7~1\AppData\Local\Temp\ccfwrfN0.s 			page 39


DEFINED SYMBOLS
                            *ABS*:0000000000000000 main.c
C:\Users\A4F7~1\AppData\Local\Temp\ccfwrfN0.s:14     .text.resetCC:0000000000000000 $t
C:\Users\A4F7~1\AppData\Local\Temp\ccfwrfN0.s:22     .text.resetCC:0000000000000000 resetCC
C:\Users\A4F7~1\AppData\Local\Temp\ccfwrfN0.s:40     .text.resetCC:0000000000000018 $d
C:\Users\A4F7~1\AppData\Local\Temp\ccfwrfN0.s:43     .text.copyCCtoLC:0000000000000000 $t
C:\Users\A4F7~1\AppData\Local\Temp\ccfwrfN0.s:50     .text.copyCCtoLC:0000000000000000 copyCCtoLC
C:\Users\A4F7~1\AppData\Local\Temp\ccfwrfN0.s:66     .text.copyCCtoLC:0000000000000018 $d
C:\Users\A4F7~1\AppData\Local\Temp\ccfwrfN0.s:70     .text.delay_ms:0000000000000000 $t
C:\Users\A4F7~1\AppData\Local\Temp\ccfwrfN0.s:77     .text.delay_ms:0000000000000000 delay_ms
C:\Users\A4F7~1\AppData\Local\Temp\ccfwrfN0.s:108    .text.delay_ms:0000000000000038 $d
C:\Users\A4F7~1\AppData\Local\Temp\ccfwrfN0.s:111    .text.DataBusRead:0000000000000000 $t
C:\Users\A4F7~1\AppData\Local\Temp\ccfwrfN0.s:118    .text.DataBusRead:0000000000000000 DataBusRead
C:\Users\A4F7~1\AppData\Local\Temp\ccfwrfN0.s:139    .text.DataBusRead:0000000000000024 $d
C:\Users\A4F7~1\AppData\Local\Temp\ccfwrfN0.s:142    .text.DataBusWrite:0000000000000000 $t
C:\Users\A4F7~1\AppData\Local\Temp\ccfwrfN0.s:149    .text.DataBusWrite:0000000000000000 DataBusWrite
C:\Users\A4F7~1\AppData\Local\Temp\ccfwrfN0.s:170    .text.DataBusWrite:0000000000000024 $d
C:\Users\A4F7~1\AppData\Local\Temp\ccfwrfN0.s:173    .text.SendMessage:0000000000000000 $t
C:\Users\A4F7~1\AppData\Local\Temp\ccfwrfN0.s:180    .text.SendMessage:0000000000000000 SendMessage
C:\Users\A4F7~1\AppData\Local\Temp\ccfwrfN0.s:218    .text.SendMessage:0000000000000044 $d
C:\Users\A4F7~1\AppData\Local\Temp\ccfwrfN0.s:221    .text.DefaultCommand:0000000000000000 $t
C:\Users\A4F7~1\AppData\Local\Temp\ccfwrfN0.s:228    .text.DefaultCommand:0000000000000000 DefaultCommand
C:\Users\A4F7~1\AppData\Local\Temp\ccfwrfN0.s:243    .text.DefaultCommand:0000000000000018 $d
                            *COM*:0000000000000004 DeviceConfiguration
C:\Users\A4F7~1\AppData\Local\Temp\ccfwrfN0.s:247    .text.HelpCommand:0000000000000000 $t
C:\Users\A4F7~1\AppData\Local\Temp\ccfwrfN0.s:254    .text.HelpCommand:0000000000000000 HelpCommand
C:\Users\A4F7~1\AppData\Local\Temp\ccfwrfN0.s:276    .text.HelpCommand:0000000000000030 $d
C:\Users\A4F7~1\AppData\Local\Temp\ccfwrfN0.s:285    .text.WriteCommand:0000000000000000 $t
C:\Users\A4F7~1\AppData\Local\Temp\ccfwrfN0.s:292    .text.WriteCommand:0000000000000000 WriteCommand
C:\Users\A4F7~1\AppData\Local\Temp\ccfwrfN0.s:365    .text.WriteCommand:00000000000000a4 $d
C:\Users\A4F7~1\AppData\Local\Temp\ccfwrfN0.s:371    .text.ReadCommand:0000000000000000 $t
C:\Users\A4F7~1\AppData\Local\Temp\ccfwrfN0.s:378    .text.ReadCommand:0000000000000000 ReadCommand
C:\Users\A4F7~1\AppData\Local\Temp\ccfwrfN0.s:455    .text.ReadCommand:00000000000000ac $d
C:\Users\A4F7~1\AppData\Local\Temp\ccfwrfN0.s:461    .text.taskExecCommand:0000000000000000 $t
C:\Users\A4F7~1\AppData\Local\Temp\ccfwrfN0.s:468    .text.taskExecCommand:0000000000000000 taskExecCommand
C:\Users\A4F7~1\AppData\Local\Temp\ccfwrfN0.s:634    .text.taskExecCommand:000000000000018c $d
C:\Users\A4F7~1\AppData\Local\Temp\ccfwrfN0.s:647    .text.errorType:0000000000000000 $t
C:\Users\A4F7~1\AppData\Local\Temp\ccfwrfN0.s:654    .text.errorType:0000000000000000 errorType
C:\Users\A4F7~1\AppData\Local\Temp\ccfwrfN0.s:662    .text.errorType:000000000000000a $d
C:\Users\A4F7~1\AppData\Local\Temp\ccfwrfN0.s:737    .text.errorType:0000000000000090 $d
                            *COM*:0000000000000028 recieved
C:\Users\A4F7~1\AppData\Local\Temp\ccfwrfN0.s:752    .text.SaveCommand:0000000000000000 $t
C:\Users\A4F7~1\AppData\Local\Temp\ccfwrfN0.s:759    .text.SaveCommand:0000000000000000 SaveCommand
C:\Users\A4F7~1\AppData\Local\Temp\ccfwrfN0.s:786    .text.SaveCommand:0000000000000038 $d
                            *COM*:0000000000000008 FlashControl
C:\Users\A4F7~1\AppData\Local\Temp\ccfwrfN0.s:795    .text.initDeviceConfig:0000000000000000 $t
C:\Users\A4F7~1\AppData\Local\Temp\ccfwrfN0.s:802    .text.initDeviceConfig:0000000000000000 initDeviceConfig
C:\Users\A4F7~1\AppData\Local\Temp\ccfwrfN0.s:849    .text.initDeviceConfig:0000000000000054 $d
C:\Users\A4F7~1\AppData\Local\Temp\ccfwrfN0.s:861    .text.parseUARTMessage:0000000000000000 $t
C:\Users\A4F7~1\AppData\Local\Temp\ccfwrfN0.s:868    .text.parseUARTMessage:0000000000000000 parseUARTMessage
C:\Users\A4F7~1\AppData\Local\Temp\ccfwrfN0.s:1182   .text.parseUARTMessage:00000000000002c4 $d
                            *COM*:000000000000001c UART_Message
C:\Users\A4F7~1\AppData\Local\Temp\ccfwrfN0.s:1199   .text.parseUARTMessage:0000000000000304 $t
C:\Users\A4F7~1\AppData\Local\Temp\ccfwrfN0.s:1491   .text.parseUARTMessage:000000000000058c $d
C:\Users\A4F7~1\AppData\Local\Temp\ccfwrfN0.s:1501   .text.parseUARTMessage:00000000000005b0 $t
C:\Users\A4F7~1\AppData\Local\Temp\ccfwrfN0.s:1657   .text.parseUARTMessage:00000000000006c8 $d
C:\Users\A4F7~1\AppData\Local\Temp\ccfwrfN0.s:1670   .text.RecieveMessage:0000000000000000 $t
ARM GAS  C:\Users\A4F7~1\AppData\Local\Temp\ccfwrfN0.s 			page 40


C:\Users\A4F7~1\AppData\Local\Temp\ccfwrfN0.s:1677   .text.RecieveMessage:0000000000000000 RecieveMessage
C:\Users\A4F7~1\AppData\Local\Temp\ccfwrfN0.s:1724   .text.RecieveMessage:0000000000000054 $d
C:\Users\A4F7~1\AppData\Local\Temp\ccfwrfN0.s:1731   .text.USART1_IRQHandler:0000000000000000 $t
C:\Users\A4F7~1\AppData\Local\Temp\ccfwrfN0.s:1738   .text.USART1_IRQHandler:0000000000000000 USART1_IRQHandler
C:\Users\A4F7~1\AppData\Local\Temp\ccfwrfN0.s:1759   .text.USART1_IRQHandler:0000000000000020 $d
C:\Users\A4F7~1\AppData\Local\Temp\ccfwrfN0.s:1763   .text.main:0000000000000000 $t
C:\Users\A4F7~1\AppData\Local\Temp\ccfwrfN0.s:1770   .text.main:0000000000000000 main
C:\Users\A4F7~1\AppData\Local\Temp\ccfwrfN0.s:1789   .text.main:0000000000000028 $d
C:\Users\A4F7~1\AppData\Local\Temp\ccfwrfN0.s:1827   .bss.rec_len:0000000000000000 rec_len
C:\Users\A4F7~1\AppData\Local\Temp\ccfwrfN0.s:1820   .bss.LastCommand:0000000000000000 LastCommand
C:\Users\A4F7~1\AppData\Local\Temp\ccfwrfN0.s:1813   .bss.CurrentCommand:0000000000000000 CurrentCommand
C:\Users\A4F7~1\AppData\Local\Temp\ccfwrfN0.s:1799   .rodata:0000000000000000 $d
C:\Users\A4F7~1\AppData\Local\Temp\ccfwrfN0.s:1809   .bss.CurrentCommand:0000000000000000 $d
C:\Users\A4F7~1\AppData\Local\Temp\ccfwrfN0.s:1816   .bss.LastCommand:0000000000000000 $d
C:\Users\A4F7~1\AppData\Local\Temp\ccfwrfN0.s:1823   .bss.rec_len:0000000000000000 $d
C:\Users\A4F7~1\AppData\Local\Temp\ccfwrfN0.s:1830   .rodata.DefaultCommand.str1.4:0000000000000000 $d
C:\Users\A4F7~1\AppData\Local\Temp\ccfwrfN0.s:1835   .rodata.HelpCommand.str1.4:0000000000000000 $d
C:\Users\A4F7~1\AppData\Local\Temp\ccfwrfN0.s:1856   .rodata.RecieveMessage.str1.4:0000000000000000 $d
C:\Users\A4F7~1\AppData\Local\Temp\ccfwrfN0.s:1863   .rodata.SaveCommand.str1.4:0000000000000000 $d
C:\Users\A4F7~1\AppData\Local\Temp\ccfwrfN0.s:1867   .rodata.USART1_IRQHandler.str1.4:0000000000000000 $d
C:\Users\A4F7~1\AppData\Local\Temp\ccfwrfN0.s:1871   .rodata.errorType.str1.4:0000000000000000 $d
C:\Users\A4F7~1\AppData\Local\Temp\ccfwrfN0.s:1905   .rodata.initDeviceConfig.str1.4:0000000000000000 $d
C:\Users\A4F7~1\AppData\Local\Temp\ccfwrfN0.s:1919   .rodata.main.str1.4:0000000000000000 $d
C:\Users\A4F7~1\AppData\Local\Temp\ccfwrfN0.s:1923   .rodata.parseUARTMessage.str1.4:0000000000000000 $d
C:\Users\A4F7~1\AppData\Local\Temp\ccfwrfN0.s:1975   .rodata.taskExecCommand.str1.4:0000000000000000 $d
C:\Users\A4F7~1\AppData\Local\Temp\ccfwrfN0.s:673    .text.errorType:0000000000000015 $d
C:\Users\A4F7~1\AppData\Local\Temp\ccfwrfN0.s:673    .text.errorType:0000000000000016 $t

UNDEFINED SYMBOLS
IO_SetLine
snprintf
strcat
strlen
printf
flash_unlock
flash_erase_page
flash_write
flash_lock
strtok
strncmp
checkHexFormat
strtol
checkRange
checkParity
_ctype_
IO_Init
initUSART1_19200
initIRQHandler
initTIM1_msTimer
initTIM3CH2_externalCounter
